

Microchip MPLAB XC8 Assembler V2.45 build 20230818022343 
                                                                                               Mon Feb 05 16:17:54 2024

Microchip MPLAB XC8 C Compiler v2.45 (Free license) build 20230818022343 Og1 
     1                           	processor	18F4620
     2                           	fnconf	rparam,??,?,0
     3                           	pagewidth 120
     4                           	opt	flic
     5                           	psect	idataCOMRAM,global,class=CODE,delta=1,noexec
     6                           	psect	smallconst,global,reloc=2,class=SMALLCONST,delta=1,noexec
     7                           	psect	cinit,global,reloc=2,class=CODE,delta=1
     8                           	psect	bssCOMRAM,global,class=COMRAM,space=1,delta=1,lowdata,noexec
     9                           	psect	dataCOMRAM,global,class=COMRAM,space=1,delta=1,lowdata,noexec
    10                           	psect	cstackBANK0,global,class=BANK0,space=1,delta=1,lowdata,noexec
    11                           	psect	cstackCOMRAM,global,class=COMRAM,space=1,delta=1,lowdata,noexec
    12                           	psect	text0,global,reloc=2,class=CODE,delta=1
    13                           	psect	text1,global,reloc=2,class=CODE,delta=1
    14                           	psect	text2,global,reloc=2,class=CODE,delta=1
    15                           	psect	text3,global,reloc=2,class=CODE,delta=1
    16                           	psect	text4,global,reloc=2,class=CODE,delta=1
    17                           	psect	text5,global,reloc=2,class=CODE,delta=1
    18                           	psect	text6,global,reloc=2,class=CODE,delta=1
    19                           	psect	text7,global,reloc=2,class=CODE,delta=1
    20                           	psect	intcode,global,reloc=2,class=CODE,delta=1
    21                           	psect	intcode_body,global,reloc=2,class=CODE,delta=1
    22                           	psect	text9,global,reloc=2,class=CODE,delta=1
    23                           	psect	text10,global,reloc=2,class=CODE,delta=1
    24                           	psect	text11,global,reloc=2,class=CODE,delta=1
    25                           	psect	text12,global,reloc=2,class=CODE,delta=1
    26                           	psect	text13,global,reloc=2,class=CODE,delta=1
    27                           	psect	text14,global,reloc=2,class=CODE,delta=1
    28                           	psect	text15,global,reloc=2,class=CODE,delta=1
    29                           	psect	text16,global,reloc=2,class=CODE,delta=1
    30                           	psect	text17,global,reloc=2,class=CODE,delta=1
    31                           	psect	text18,global,reloc=2,class=CODE,delta=1
    32                           	psect	text19,global,reloc=2,class=CODE,delta=1
    33                           	psect	intsave_regs,global,class=BIGRAM,space=1,delta=1,noexec
    34                           	psect	text20,global,reloc=2,class=CODE,delta=1
    35                           	psect	rparam,global,class=COMRAM,space=1,delta=1,noexec
    36                           	psect	temp,global,ovrld,common,class=COMRAM,space=1,delta=1
    37                           	psect	config,global,abs,ovrld,class=CONFIG,space=4,delta=1,noexec
    38   000000                     
    39                           ; Generated 23/03/2023 GMT
    40                           ; 
    41                           ; Copyright © 2023, Microchip Technology Inc. and its subsidiaries ("Microchip")
    42                           ; All rights reserved.
    43                           ; 
    44                           ; This software is developed by Microchip Technology Inc. and its subsidiaries ("Microch
      +                          ip").
    45                           ; 
    46                           ; Redistribution and use in source and binary forms, with or without modification, are
    47                           ; permitted provided that the following conditions are met:
    48                           ; 
    49                           ;     1. Redistributions of source code must retain the above copyright notice, this lis
      +                          t of
    50                           ;        conditions and the following disclaimer.
    51                           ; 
    52                           ;     2. Redistributions in binary form must reproduce the above copyright notice, this 
      +                          list
    53                           ;        of conditions and the following disclaimer in the documentation and/or other
    54                           ;        materials provided with the distribution. Publication is not required when
    55                           ;        this file is used in an embedded application.
    56                           ; 
    57                           ;     3. Microchip's name may not be used to endorse or promote products derived from th
      +                          is
    58                           ;        software without specific prior written permission.
    59                           ; 
    60                           ; THIS SOFTWARE IS PROVIDED BY MICROCHIP "AS IS" AND ANY EXPRESS OR IMPLIED WARRANTIES,
    61                           ; INCLUDING, BUT NOT LIMITED TO, THE IMPLIED WARRANTIES OF MERCHANTABILITY AND FITNESS F
      +                          OR
    62                           ; PURPOSE ARE DISCLAIMED.  IN NO EVENT SHALL MICROCHIP BE LIABLE FOR ANY DIRECT, INDIREC
      +                          T,
    63                           ; INCIDENTAL, SPECIAL, EXEMPLARY, OR CONSEQUENTIAL DAMAGES (INCLUDING BUT NOT LIMITED TO
    64                           ; PROCUREMENT OF SUBSTITUTE GOODS OR SERVICES; LOSS OF USE, DATA OR PROFITS; OR BUSINESS
    65                           ; INTERRUPTION) HOWSOEVER CAUSED AND ON ANY THEORY OF LIABILITY, WHETHER IN CONTRACT, ST
      +                          RICT
    66                           ; LIABILITY, OR TORT (INCLUDING NEGLIGENCE OR OTHERWISE) ARISING IN ANY WAY OUT OF THE U
      +                          SE OF
    67                           ; THIS SOFTWARE, EVEN IF ADVISED OF THE POSSIBILITY OF SUCH DAMAGE.
    68                           ; 
    69                           ; 
    70                           ; Code-generator required, PIC18F4620 Definitions
    71                           ; 
    72                           ; SFR Addresses
    73   000000                     
    74                           	psect	idataCOMRAM
    75   001932                     __pidataCOMRAM:
    76                           	callstack 0
    77                           
    78                           ;initializer for _port_registers
    79   001932  80                 	db	128
    80   001933  0F                 	db	15
    81   001934  81                 	db	129
    82   001935  0F                 	db	15
    83   001936  82                 	db	130
    84   001937  0F                 	db	15
    85   001938  83                 	db	131
    86   001939  0F                 	db	15
    87   00193A  84                 	db	132
    88   00193B  0F                 	db	15
    89                           
    90                           ;initializer for _lat_registers
    91   00193C  89                 	db	137
    92   00193D  0F                 	db	15
    93   00193E  8A                 	db	138
    94   00193F  0F                 	db	15
    95   001940  8B                 	db	139
    96   001941  0F                 	db	15
    97   001942  8C                 	db	140
    98   001943  0F                 	db	15
    99   001944  8D                 	db	141
   100   001945  0F                 	db	15
   101                           
   102                           ;initializer for _tris_registers
   103   001946  92                 	db	146
   104   001947  0F                 	db	15
   105   001948  93                 	db	147
   106   001949  0F                 	db	15
   107   00194A  94                 	db	148
   108   00194B  0F                 	db	15
   109   00194C  95                 	db	149
   110   00194D  0F                 	db	15
   111   00194E  96                 	db	150
   112   00194F  0F                 	db	15
   113                           
   114                           ;initializer for _key
   115   001950  02                 	db	2
   116   001951  0A                 	db	10
   117   001952  12                 	db	18
   118   001953  1A                 	db	26
   119   001954  62                 	db	98
   120   001955  6A                 	db	106
   121   001956  72                 	db	114
   122   001957  7A                 	db	122
   123                           
   124                           ;initializer for _lcd
   125   001958  0B                 	db	11
   126   001959  03                 	db	3
   127   00195A  13                 	db	19
   128   00195B  1B                 	db	27
   129   00195C  23                 	db	35
   130   00195D  2B                 	db	43
   131                           
   132                           ;initializer for _button
   133   00195E  73                 	db	115
   134   00195F  00                 	db	0
   135   001960  01                 	db	1
   136                           
   137                           ;initializer for _led3
   138   001961  1A                 	db	26
   139                           
   140                           ;initializer for _ret
   141   001962  01                 	db	1
   142                           
   143                           ;initializer for _RB7_f
   144   001963  01                 	db	1
   145                           
   146                           ;initializer for _RB6_f
   147   001964  01                 	db	1
   148                           
   149                           ;initializer for _RB5_f
   150   001965  01                 	db	1
   151                           
   152                           ;initializer for _RB4_f
   153   001966  01                 	db	1
   154                           
   155                           ;initializer for _rb
   156   001967  EC                 	db	low _High
   157   001968  19                 	db	high _High
   158   001969  E0                 	db	low _Low
   159   00196A  19                 	db	high _Low
   160   00196B  01                 	db	1
   161   00196C  61                 	db	97
   162                           
   163                           ;initializer for _led2
   164   00196D  12                 	db	18
   165                           
   166                           ;initializer for _led1
   167   00196E  4A                 	db	74
   168                           
   169                           ;initializer for _led0
   170   00196F  02                 	db	2
   171                           
   172                           	psect	smallconst
   173   001000                     __psmallconst:
   174                           	callstack 0
   175   001000  00                 	db	0
   176   001001                     _btn_values:
   177                           	callstack 0
   178   001001  37                 	db	55
   179   001002  38                 	db	56
   180   001003  39                 	db	57
   181   001004  2F                 	db	47
   182   001005  34                 	db	52
   183   001006  35                 	db	53
   184   001007  36                 	db	54
   185   001008  2A                 	db	42
   186   001009  31                 	db	49
   187   00100A  32                 	db	50
   188   00100B  33                 	db	51
   189   00100C  2D                 	db	45
   190   00100D  23                 	db	35
   191   00100E  30                 	db	48
   192   00100F  3D                 	db	61
   193   001010  2B                 	db	43
   194   001011                     __end_of_btn_values:
   195                           	callstack 0
   196   000000                     _INTCON2bits	set	4081
   197   000000                     _PORTBbits	set	3969
   198   000000                     _PORTE	set	3972
   199   000000                     _PORTD	set	3971
   200   000000                     _PORTC	set	3970
   201   000000                     _PORTB	set	3969
   202   000000                     _PORTA	set	3968
   203   000000                     _LATA	set	3977
   204   000000                     _TRISA	set	3986
   205   000000                     _INTCON3bits	set	4080
   206   000000                     _INTCONbits	set	4082
   207   000000                     _TRISE	set	3990
   208   000000                     _TRISD	set	3989
   209   000000                     _TRISC	set	3988
   210   000000                     _TRISB	set	3987
   211   000000                     _LATE	set	3981
   212   000000                     _LATD	set	3980
   213   000000                     _LATC	set	3979
   214   000000                     _LATB	set	3978
   215   001011                     STR_1:
   216   001011  25                 	db	37
   217   001012  69                 	db	105	;'i'
   218   001013  00                 	db	0
   219   001014  00                 	db	0	; dummy byte at the end
   220   000000                     
   221                           ; #config settings
   222                           
   223                           	psect	cinit
   224   0019AA                     __pcinit:
   225                           	callstack 0
   226   0019AA                     start_initialization:
   227                           	callstack 0
   228   0019AA                     __initialization:
   229                           	callstack 0
   230                           
   231                           ; Initialize objects allocated to COMRAM (62 bytes)
   232                           ; load TBLPTR registers with __pidataCOMRAM
   233   0019AA  0E32               	movlw	low __pidataCOMRAM
   234   0019AC  6EF6               	movwf	tblptrl,c
   235   0019AE  0E19               	movlw	high __pidataCOMRAM
   236   0019B0  6EF7               	movwf	tblptrh,c
   237   0019B2  0E00               	movlw	low (__pidataCOMRAM shr (0+16))
   238   0019B4  6EF8               	movwf	tblptru,c
   239   0019B6  EE00  F001         	lfsr	0,__pdataCOMRAM
   240   0019BA  EE10 F03E          	lfsr	1,62
   241   0019BE                     copy_data0:
   242   0019BE  0009               	tblrd		*+
   243   0019C0  CFF5 FFEE          	movff	tablat,postinc0
   244   0019C4  50E5               	movf	postdec1,w,c
   245   0019C6  50E1               	movf	fsr1l,w,c
   246   0019C8  E1FA               	bnz	copy_data0
   247                           
   248                           ; Clear objects allocated to COMRAM (29 bytes)
   249   0019CA  EE00  F03F         	lfsr	0,__pbssCOMRAM
   250   0019CE  0E1D               	movlw	29
   251   0019D0                     clear_0:
   252   0019D0  6AEE               	clrf	postinc0,c
   253   0019D2  06E8               	decf	wreg,f,c
   254   0019D4  E1FD               	bnz	clear_0
   255   0019D6                     end_of_initialization:
   256                           	callstack 0
   257   0019D6                     __end_of__initialization:
   258                           	callstack 0
   259   0019D6  906F               	bcf	int$flags,0,c	;clear compiler interrupt flag (level 1)
   260   0019D8  926F               	bcf	int$flags,1,c	;clear compiler interrupt flag (level 2)
   261   0019DA  0100               	movlb	0
   262   0019DC  EFB8  F00C         	goto	_main	;jump to C main() function
   263                           
   264                           	psect	bssCOMRAM
   265   00003F                     __pbssCOMRAM:
   266                           	callstack 0
   267   00003F                     _RB7_Interrupt_Handler_Low:
   268                           	callstack 0
   269   00003F                     	ds	2
   270   000041                     _RB7_Interrupt_Handler_High:
   271                           	callstack 0
   272   000041                     	ds	2
   273   000043                     _RB6_Interrupt_Handler_Low:
   274                           	callstack 0
   275   000043                     	ds	2
   276   000045                     _RB6_Interrupt_Handler_High:
   277                           	callstack 0
   278   000045                     	ds	2
   279   000047                     _RB5_Interrupt_Handler_Low:
   280                           	callstack 0
   281   000047                     	ds	2
   282   000049                     _RB5_Interrupt_Handler_High:
   283                           	callstack 0
   284   000049                     	ds	2
   285   00004B                     _RB4_Interrupt_Handler_Low:
   286                           	callstack 0
   287   00004B                     	ds	2
   288   00004D                     _RB4_Interrupt_Handler_High:
   289                           	callstack 0
   290   00004D                     	ds	2
   291   00004F                     _INT2_Interrupt_Handler:
   292                           	callstack 0
   293   00004F                     	ds	2
   294   000051                     _INT1_Interrupt_Handler:
   295                           	callstack 0
   296   000051                     	ds	2
   297   000053                     _INT0_Interrupt_Handler:
   298                           	callstack 0
   299   000053                     	ds	2
   300   000055                     Relay_off@F3066:
   301                           	callstack 0
   302   000055                     	ds	1
   303   000056                     Relay_on@F3061:
   304                           	callstack 0
   305   000056                     	ds	1
   306   000057                     Relay_initialize@F3056:
   307                           	callstack 0
   308   000057                     	ds	1
   309   000058                     led_toggle_status@F3073:
   310                           	callstack 0
   311   000058                     	ds	1
   312   000059                     led_turn_off@F3068:
   313                           	callstack 0
   314   000059                     	ds	1
   315   00005A                     led_turn_on@F3063:
   316                           	callstack 0
   317   00005A                     	ds	1
   318   00005B                     led_intialize@F3058:
   319                           	callstack 0
   320   00005B                     	ds	1
   321                           
   322                           	psect	dataCOMRAM
   323   000001                     __pdataCOMRAM:
   324                           	callstack 0
   325   000001                     _port_registers:
   326                           	callstack 0
   327   000001                     	ds	10
   328   00000B                     _lat_registers:
   329                           	callstack 0
   330   00000B                     	ds	10
   331   000015                     _tris_registers:
   332                           	callstack 0
   333   000015                     	ds	10
   334   00001F                     _key:
   335                           	callstack 0
   336   00001F                     	ds	8
   337   000027                     _lcd:
   338                           	callstack 0
   339   000027                     	ds	6
   340   00002D                     _button:
   341                           	callstack 0
   342   00002D                     	ds	3
   343   000030                     _led3:
   344                           	callstack 0
   345   000030                     	ds	1
   346   000031                     _ret:
   347                           	callstack 0
   348   000031                     	ds	1
   349   000032                     _RB7_f:
   350                           	callstack 0
   351   000032                     	ds	1
   352   000033                     _RB6_f:
   353                           	callstack 0
   354   000033                     	ds	1
   355   000034                     _RB5_f:
   356                           	callstack 0
   357   000034                     	ds	1
   358   000035                     _RB4_f:
   359                           	callstack 0
   360   000035                     	ds	1
   361   000036                     _rb:
   362                           	callstack 0
   363   000036                     	ds	6
   364   00003C                     _led2:
   365                           	callstack 0
   366   00003C                     	ds	1
   367   00003D                     _led1:
   368                           	callstack 0
   369   00003D                     	ds	1
   370   00003E                     _led0:
   371                           	callstack 0
   372   00003E                     	ds	1
   373                           
   374                           	psect	cstackBANK0
   375   000080                     __pcstackBANK0:
   376                           	callstack 0
   377   000080                     ??_gpio_pin_write_logic:
   378   000080                     ??_gpio_pin_direction_intialize:
   379                           
   380                           ; 1 bytes @ 0x0
   381   000080                     	ds	5
   382   000085                     ??_Interrupt_RBx_Init:
   383   000085                     gpio_pin_initialize@_pin_config:
   384                           	callstack 0
   385                           
   386                           ; 1 bytes @ 0x5
   387   000085                     	ds	1
   388   000086                     ??_gpio_pin_initialize:
   389                           
   390                           ; 1 bytes @ 0x6
   391   000086                     	ds	1
   392   000087                     gpio_pin_initialize@ret:
   393                           	callstack 0
   394   000087                     Interrupt_RBx_Init@ret:
   395                           	callstack 0
   396                           
   397                           ; 1 bytes @ 0x7
   398   000087                     	ds	1
   399   000088                     led_intialize@Led:
   400                           	callstack 0
   401                           
   402                           ; 1 bytes @ 0x8
   403   000088                     	ds	1
   404   000089                     ??_led_intialize:
   405                           
   406                           ; 1 bytes @ 0x9
   407   000089                     	ds	1
   408   00008A                     led_intialize@ret:
   409                           	callstack 0
   410                           
   411                           ; 1 bytes @ 0xA
   412   00008A                     	ds	1
   413   00008B                     led_intialize@pin_obj:
   414                           	callstack 0
   415                           
   416                           ; 1 bytes @ 0xB
   417   00008B                     	ds	1
   418                           
   419                           	psect	cstackCOMRAM
   420   00005C                     __pcstackCOMRAM:
   421                           	callstack 0
   422   00005C                     gpio_pin_toggle_logic@_pin_config:
   423                           	callstack 0
   424                           
   425                           ; 1 bytes @ 0x0
   426   00005C                     	ds	1
   427   00005D                     ??_gpio_pin_toggle_logic:
   428                           
   429                           ; 1 bytes @ 0x1
   430   00005D                     	ds	4
   431   000061                     led_toggle_status@Led:
   432                           	callstack 0
   433                           
   434                           ; 1 bytes @ 0x5
   435   000061                     	ds	1
   436   000062                     ??_led_toggle_status:
   437                           
   438                           ; 1 bytes @ 0x6
   439   000062                     	ds	1
   440   000063                     led_toggle_status@ret:
   441                           	callstack 0
   442                           
   443                           ; 1 bytes @ 0x7
   444   000063                     	ds	1
   445   000064                     led_toggle_status@pin_obj:
   446                           	callstack 0
   447                           
   448                           ; 1 bytes @ 0x8
   449   000064                     	ds	1
   450   000065                     RB4_ISR@source:
   451                           	callstack 0
   452   000065                     RB5_ISR@source:
   453                           	callstack 0
   454   000065                     RB6_ISR@source:
   455                           	callstack 0
   456   000065                     RB7_ISR@source:
   457                           	callstack 0
   458                           
   459                           ; 1 bytes @ 0x9
   460   000065                     	ds	1
   461   000066                     ??_Interrupt_Manager_High:
   462                           
   463                           ; 1 bytes @ 0xA
   464   000066                     	ds	6
   465   00006C                     gpio_pin_direction_intialize@_pin_config:
   466                           	callstack 0
   467   00006C                     gpio_pin_write_logic@_pin_config:
   468                           	callstack 0
   469                           
   470                           ; 1 bytes @ 0x10
   471   00006C                     	ds	1
   472   00006D                     gpio_pin_direction_intialize@ret:
   473                           	callstack 0
   474   00006D                     gpio_pin_write_logic@logic_:
   475                           	callstack 0
   476                           
   477                           ; 1 bytes @ 0x11
   478   00006D                     	ds	1
   479   00006E                     gpio_pin_write_logic@ret:
   480                           	callstack 0
   481   00006E                     Interrupt_RBx_Init@obj:
   482                           	callstack 0
   483                           
   484                           ; 1 bytes @ 0x12
   485   00006E                     	ds	1
   486   00006F                     
   487                           ; 1 bytes @ 0x13
   488 ;;
   489 ;;Main: autosize = 0, tempsize = 0, incstack = 0, save=0
   490 ;;
   491 ;; *************** function _main *****************
   492 ;; Defined at:
   493 ;;		line 49 in file "app.c"
   494 ;; Parameters:    Size  Location     Type
   495 ;;		None
   496 ;; Auto vars:     Size  Location     Type
   497 ;;		None
   498 ;; Return value:  Size  Location     Type
   499 ;;                  2  727[None  ] int 
   500 ;; Registers used:
   501 ;;		wreg, fsr2l, fsr2h, status,2, status,0, prodl, prodh, cstack
   502 ;; Tracked objects:
   503 ;;		On entry : 0/0
   504 ;;		On exit  : 0/0
   505 ;;		Unchanged: 0/0
   506 ;; Data sizes:     COMRAM   BANK0   BANK1   BANK2   BANK3   BANK4   BANK5   BANK6   BANK7   BANK8   BANK9  BANK10  BANK1
      +1  BANK12  BANK13  BANK14  BANK15
   507 ;;      Params:         0       0       0       0       0       0       0       0       0       0       0       0       
      +0       0       0       0       0
   508 ;;      Locals:         0       0       0       0       0       0       0       0       0       0       0       0       
      +0       0       0       0       0
   509 ;;      Temps:          0       0       0       0       0       0       0       0       0       0       0       0       
      +0       0       0       0       0
   510 ;;      Totals:         0       0       0       0       0       0       0       0       0       0       0       0       
      +0       0       0       0       0
   511 ;;Total ram usage:        0 bytes
   512 ;; Hardware stack levels required when called: 8
   513 ;; This function calls:
   514 ;;		_Application_initialize
   515 ;;		_Interrupt_RBx_Init
   516 ;;		_led_intialize
   517 ;; This function is called by:
   518 ;;		Startup code after reset
   519 ;; This function uses a non-reentrant model
   520 ;;
   521                           
   522                           	psect	text0
   523   001970                     __ptext0:
   524                           	callstack 0
   525   001970                     _main:
   526                           	callstack 23
   527   001970                     
   528                           ;app.c: 51:     ret = led_intialize(&led0);
   529   001970  0E3E               	movlw	low _led0
   530   001972  0100               	movlb	0	; () banked
   531   001974  6F88               	movwf	led_intialize@Led& (0+255),b
   532   001976  ECF0  F00B         	call	_led_intialize	;wreg free
   533   00197A  6E31               	movwf	_ret^0,c
   534                           
   535                           ;app.c: 52:     ret = led_intialize(&led1);
   536   00197C  0E3D               	movlw	low _led1
   537   00197E  0100               	movlb	0	; () banked
   538   001980  6F88               	movwf	led_intialize@Led& (0+255),b
   539   001982  ECF0  F00B         	call	_led_intialize	;wreg free
   540   001986  6E31               	movwf	_ret^0,c
   541                           
   542                           ;app.c: 53:     ret = led_intialize(&led2);
   543   001988  0E3C               	movlw	low _led2
   544   00198A  0100               	movlb	0	; () banked
   545   00198C  6F88               	movwf	led_intialize@Led& (0+255),b
   546   00198E  ECF0  F00B         	call	_led_intialize	;wreg free
   547   001992  6E31               	movwf	_ret^0,c
   548                           
   549                           ;app.c: 54:     ret = Interrupt_RBx_Init(&rb);
   550   001994  0E36               	movlw	low _rb
   551   001996  6E6E               	movwf	Interrupt_RBx_Init@obj^0,c
   552   001998  EC9A  F009         	call	_Interrupt_RBx_Init	;wreg free
   553   00199C  6E31               	movwf	_ret^0,c
   554   00199E                     
   555                           ;app.c: 55:     Application_initialize();
   556   00199E  ECFC  F00C         	call	_Application_initialize	;wreg free
   557   0019A2                     l728:
   558   0019A2  EFD1  F00C         	goto	l728
   559   0019A6  EF07  F000         	goto	start
   560   0019AA                     __end_of_main:
   561                           	callstack 0
   562                           
   563 ;; *************** function _led_intialize *****************
   564 ;; Defined at:
   565 ;;		line 12 in file "ECU_LAYER/Led/ecu_led.c"
   566 ;; Parameters:    Size  Location     Type
   567 ;;  Led             1    8[BANK0 ] PTR const struct .
   568 ;;		 -> led2(1), led1(1), led0(1), 
   569 ;; Auto vars:     Size  Location     Type
   570 ;;  pin_obj         1   11[BANK0 ] struct .
   571 ;;  ret             1   10[BANK0 ] unsigned char 
   572 ;; Return value:  Size  Location     Type
   573 ;;                  1    wreg      unsigned char 
   574 ;; Registers used:
   575 ;;		wreg, fsr2l, fsr2h, status,2, status,0, prodl, prodh, cstack
   576 ;; Tracked objects:
   577 ;;		On entry : 0/0
   578 ;;		On exit  : 0/0
   579 ;;		Unchanged: 0/0
   580 ;; Data sizes:     COMRAM   BANK0   BANK1   BANK2   BANK3   BANK4   BANK5   BANK6   BANK7   BANK8   BANK9  BANK10  BANK1
      +1  BANK12  BANK13  BANK14  BANK15
   581 ;;      Params:         0       1       0       0       0       0       0       0       0       0       0       0       
      +0       0       0       0       0
   582 ;;      Locals:         0       2       0       0       0       0       0       0       0       0       0       0       
      +0       0       0       0       0
   583 ;;      Temps:          0       1       0       0       0       0       0       0       0       0       0       0       
      +0       0       0       0       0
   584 ;;      Totals:         0       4       0       0       0       0       0       0       0       0       0       0       
      +0       0       0       0       0
   585 ;;Total ram usage:        4 bytes
   586 ;; Hardware stack levels used: 1
   587 ;; Hardware stack levels required when called: 7
   588 ;; This function calls:
   589 ;;		_gpio_pin_initialize
   590 ;; This function is called by:
   591 ;;		_main
   592 ;; This function uses a non-reentrant model
   593 ;;
   594                           
   595                           	psect	text1
   596   0017E0                     __ptext1:
   597                           	callstack 0
   598   0017E0                     _led_intialize:
   599                           	callstack 23
   600   0017E0                     
   601                           ;ECU_LAYER/Led/ecu_led.c: 13:     Std_ReturnType ret = (Std_ReturnType)0X01;
   602   0017E0  0E01               	movlw	1
   603   0017E2  0100               	movlb	0	; () banked
   604   0017E4  6F8A               	movwf	led_intialize@ret& (0+255),b
   605                           
   606                           ;ECU_LAYER/Led/ecu_led.c: 14:     if (((void*)0) == Led) {
   607   0017E6  5188               	movf	led_intialize@Led& (0+255),w,b
   608   0017E8  A4D8               	btfss	status,2,c
   609   0017EA  EFF9  F00B         	goto	u3191
   610   0017EE  EFFB  F00B         	goto	u3190
   611   0017F2                     u3191:
   612   0017F2  EFFF  F00B         	goto	l251
   613   0017F6                     u3190:
   614   0017F6                     
   615                           ; BSR set to: 0
   616                           ;ECU_LAYER/Led/ecu_led.c: 15:         ret = (Std_ReturnType)0X00;
   617   0017F6  0E00               	movlw	0
   618   0017F8  6F8A               	movwf	led_intialize@ret& (0+255),b
   619                           
   620                           ;ECU_LAYER/Led/ecu_led.c: 16:     } else {
   621   0017FA  EF2A  F00C         	goto	l3903
   622   0017FE                     l251:
   623                           
   624                           ; BSR set to: 0
   625                           ;ECU_LAYER/Led/ecu_led.c: 18:         pin_config_t pin_obj = {
   626   0017FE  C05B  F08B         	movff	led_intialize@F3058,led_intialize@pin_obj
   627   001802                     
   628                           ; BSR set to: 0
   629   001802  5188               	movf	led_intialize@Led& (0+255),w,b
   630   001804  6ED9               	movwf	fsr2l,c
   631   001806  6ADA               	clrf	fsr2h,c
   632   001808  50DF               	movf	223,w,c
   633   00180A  0B07               	andlw	7
   634   00180C  6F89               	movwf	??_led_intialize& (0+255),b
   635   00180E  518B               	movf	led_intialize@pin_obj& (0+255),w,b
   636   001810  1989               	xorwf	??_led_intialize& (0+255),w,b
   637   001812  0BF8               	andlw	-8
   638   001814  1989               	xorwf	??_led_intialize& (0+255),w,b
   639   001816  6F8B               	movwf	led_intialize@pin_obj& (0+255),b
   640   001818  5188               	movf	led_intialize@Led& (0+255),w,b
   641   00181A  6ED9               	movwf	fsr2l,c
   642   00181C  6ADA               	clrf	fsr2h,c
   643   00181E  30DF               	rrcf	223,w,c
   644   001820  32E8               	rrcf	wreg,f,c
   645   001822  32E8               	rrcf	wreg,f,c
   646   001824  0B07               	andlw	7
   647   001826  6F89               	movwf	??_led_intialize& (0+255),b
   648   001828  4789               	rlncf	??_led_intialize& (0+255),f,b
   649   00182A  4789               	rlncf	??_led_intialize& (0+255),f,b
   650   00182C  4789               	rlncf	??_led_intialize& (0+255),f,b
   651   00182E  518B               	movf	led_intialize@pin_obj& (0+255),w,b
   652   001830  1989               	xorwf	??_led_intialize& (0+255),w,b
   653   001832  0BC7               	andlw	-57
   654   001834  1989               	xorwf	??_led_intialize& (0+255),w,b
   655   001836  6F8B               	movwf	led_intialize@pin_obj& (0+255),b
   656   001838                     
   657                           ; BSR set to: 0
   658   001838  9D8B               	bcf	led_intialize@pin_obj& (0+255),6,b
   659   00183A                     
   660                           ; BSR set to: 0
   661   00183A  5188               	movf	led_intialize@Led& (0+255),w,b
   662   00183C  6ED9               	movwf	fsr2l,c
   663   00183E  6ADA               	clrf	fsr2h,c
   664   001840  ACDF               	btfss	indf2,6,c
   665   001842  D002               	bra	u3205
   666   001844  8F8B               	bsf	led_intialize@pin_obj& (0+255),7,b
   667   001846  D002               	bra	u3207
   668   001848                     u3205:
   669   001848  0100               	movlb	0	; () banked
   670   00184A  9F8B               	bcf	led_intialize@pin_obj& (0+255),7,b
   671   00184C                     u3207:
   672   00184C                     
   673                           ; BSR set to: 0
   674                           ;ECU_LAYER/Led/ecu_led.c: 24:         gpio_pin_initialize(&pin_obj);
   675   00184C  0E8B               	movlw	low led_intialize@pin_obj
   676   00184E  6F85               	movwf	gpio_pin_initialize@_pin_config& (0+255),b
   677   001850  EC67  F00C         	call	_gpio_pin_initialize	;wreg free
   678   001854                     l3903:
   679                           
   680                           ;ECU_LAYER/Led/ecu_led.c: 26:     return ret;
   681   001854  0100               	movlb	0	; () banked
   682   001856  518A               	movf	led_intialize@ret& (0+255),w,b
   683   001858                     
   684                           ; BSR set to: 0
   685   001858  0012               	return		;funcret
   686   00185A                     __end_of_led_intialize:
   687                           	callstack 0
   688                           
   689 ;; *************** function _gpio_pin_initialize *****************
   690 ;; Defined at:
   691 ;;		line 101 in file "MCAL_Layer/GPIO/hal_gpio.c"
   692 ;; Parameters:    Size  Location     Type
   693 ;;  _pin_config     1    5[BANK0 ] PTR const struct .
   694 ;;		 -> Relay_initialize@pin_obj(1), led_intialize@pin_obj(1), 
   695 ;; Auto vars:     Size  Location     Type
   696 ;;  ret             1    7[BANK0 ] unsigned char 
   697 ;; Return value:  Size  Location     Type
   698 ;;                  1    wreg      unsigned char 
   699 ;; Registers used:
   700 ;;		wreg, fsr2l, fsr2h, status,2, status,0, prodl, prodh, cstack
   701 ;; Tracked objects:
   702 ;;		On entry : 0/0
   703 ;;		On exit  : 0/0
   704 ;;		Unchanged: 0/0
   705 ;; Data sizes:     COMRAM   BANK0   BANK1   BANK2   BANK3   BANK4   BANK5   BANK6   BANK7   BANK8   BANK9  BANK10  BANK1
      +1  BANK12  BANK13  BANK14  BANK15
   706 ;;      Params:         0       1       0       0       0       0       0       0       0       0       0       0       
      +0       0       0       0       0
   707 ;;      Locals:         0       1       0       0       0       0       0       0       0       0       0       0       
      +0       0       0       0       0
   708 ;;      Temps:          0       1       0       0       0       0       0       0       0       0       0       0       
      +0       0       0       0       0
   709 ;;      Totals:         0       3       0       0       0       0       0       0       0       0       0       0       
      +0       0       0       0       0
   710 ;;Total ram usage:        3 bytes
   711 ;; Hardware stack levels used: 1
   712 ;; Hardware stack levels required when called: 6
   713 ;; This function calls:
   714 ;;		_gpio_pin_direction_intialize
   715 ;;		_gpio_pin_write_logic
   716 ;; This function is called by:
   717 ;;		_led_intialize
   718 ;;		_button_intialize
   719 ;;		_lcd_4bit_initailize
   720 ;;		_lcd_8bit_initailize
   721 ;;		_Dc_motor_initialize
   722 ;;		_keypad_initialize
   723 ;;		_Relay_initialize
   724 ;;		_Seven_Segm_initailize
   725 ;;		_Interrupt_INTx_Pin_Init
   726 ;; This function uses a non-reentrant model
   727 ;;
   728                           
   729                           	psect	text2
   730   0018CE                     __ptext2:
   731                           	callstack 0
   732   0018CE                     _gpio_pin_initialize:
   733                           	callstack 23
   734   0018CE                     
   735                           ;MCAL_Layer/GPIO/hal_gpio.c: 102:     Std_ReturnType ret = (Std_ReturnType)0X01;
   736   0018CE  0E01               	movlw	1
   737   0018D0  0100               	movlb	0	; () banked
   738   0018D2  6F87               	movwf	gpio_pin_initialize@ret& (0+255),b
   739                           
   740                           ;MCAL_Layer/GPIO/hal_gpio.c: 103:     if (((void*)0) == _pin_config || _pin_config->pin 
      +                          > 8 - 1) {
   741   0018D4  5185               	movf	gpio_pin_initialize@_pin_config& (0+255),w,b
   742   0018D6  B4D8               	btfsc	status,2,c
   743   0018D8  EF70  F00C         	goto	u3011
   744   0018DC  EF72  F00C         	goto	u3010
   745   0018E0                     u3011:
   746   0018E0  EF82  F00C         	goto	l3707
   747   0018E4                     u3010:
   748   0018E4                     
   749                           ; BSR set to: 0
   750   0018E4  5185               	movf	gpio_pin_initialize@_pin_config& (0+255),w,b
   751   0018E6  6ED9               	movwf	fsr2l,c
   752   0018E8  6ADA               	clrf	fsr2h,c
   753   0018EA  30DF               	rrcf	223,w,c
   754   0018EC  32E8               	rrcf	wreg,f,c
   755   0018EE  32E8               	rrcf	wreg,f,c
   756   0018F0  0B07               	andlw	7
   757   0018F2  6F86               	movwf	??_gpio_pin_initialize& (0+255),b
   758   0018F4  0E07               	movlw	7
   759   0018F6  6586               	cpfsgt	??_gpio_pin_initialize& (0+255),b
   760   0018F8  EF80  F00C         	goto	u3021
   761   0018FC  EF82  F00C         	goto	u3020
   762   001900                     u3021:
   763   001900  EF86  F00C         	goto	l3709
   764   001904                     u3020:
   765   001904                     l3707:
   766                           
   767                           ; BSR set to: 0
   768                           ;MCAL_Layer/GPIO/hal_gpio.c: 104:         ret = (Std_ReturnType)0X00;
   769   001904  0E00               	movlw	0
   770   001906  6F87               	movwf	gpio_pin_initialize@ret& (0+255),b
   771                           
   772                           ;MCAL_Layer/GPIO/hal_gpio.c: 105:     } else {
   773   001908  EF96  F00C         	goto	l3711
   774   00190C                     l3709:
   775                           
   776                           ; BSR set to: 0
   777                           ;MCAL_Layer/GPIO/hal_gpio.c: 106:         gpio_pin_direction_intialize(_pin_config);
   778   00190C  C085  F06C         	movff	gpio_pin_initialize@_pin_config,gpio_pin_direction_intialize@_pin_config
   779   001910  EC04  F009         	call	_gpio_pin_direction_intialize	;wreg free
   780                           
   781                           ;MCAL_Layer/GPIO/hal_gpio.c: 107:         gpio_pin_write_logic(_pin_config, _pin_config-
      +                          >logic);
   782   001914  C085  F06C         	movff	gpio_pin_initialize@_pin_config,gpio_pin_write_logic@_pin_config
   783   001918  0100               	movlb	0	; () banked
   784   00191A  5185               	movf	gpio_pin_initialize@_pin_config& (0+255),w,b
   785   00191C  6ED9               	movwf	fsr2l,c
   786   00191E  6ADA               	clrf	fsr2h,c
   787   001920  0E00               	movlw	0
   788   001922  BEDF               	btfsc	indf2,7,c
   789   001924  0E01               	movlw	1
   790   001926  6E6D               	movwf	gpio_pin_write_logic@logic_^0,c
   791   001928  EC28  F00A         	call	_gpio_pin_write_logic	;wreg free
   792   00192C                     l3711:
   793                           
   794                           ;MCAL_Layer/GPIO/hal_gpio.c: 110:     return ret;
   795   00192C  0100               	movlb	0	; () banked
   796   00192E  5187               	movf	gpio_pin_initialize@ret& (0+255),w,b
   797   001930                     
   798                           ; BSR set to: 0
   799   001930  0012               	return		;funcret
   800   001932                     __end_of_gpio_pin_initialize:
   801                           	callstack 0
   802                           
   803 ;; *************** function _gpio_pin_write_logic *****************
   804 ;; Defined at:
   805 ;;		line 55 in file "MCAL_Layer/GPIO/hal_gpio.c"
   806 ;; Parameters:    Size  Location     Type
   807 ;;  _pin_config     1   16[COMRAM] PTR const struct .
   808 ;;		 -> Relay_off@pin_obj(1), Relay_on@pin_obj(1), Relay_initialize@pin_obj(1), led_turn_off@pin_obj(1), 
   809 ;;		 -> led_turn_on@pin_obj(1), led_intialize@pin_obj(1), 
   810 ;;  logic_          1   17[COMRAM] enum E2978
   811 ;; Auto vars:     Size  Location     Type
   812 ;;  ret             1   18[COMRAM] unsigned char 
   813 ;; Return value:  Size  Location     Type
   814 ;;                  1    wreg      unsigned char 
   815 ;; Registers used:
   816 ;;		wreg, fsr2l, fsr2h, status,2, status,0, prodl, prodh
   817 ;; Tracked objects:
   818 ;;		On entry : 0/0
   819 ;;		On exit  : 0/0
   820 ;;		Unchanged: 0/0
   821 ;; Data sizes:     COMRAM   BANK0   BANK1   BANK2   BANK3   BANK4   BANK5   BANK6   BANK7   BANK8   BANK9  BANK10  BANK1
      +1  BANK12  BANK13  BANK14  BANK15
   822 ;;      Params:         2       0       0       0       0       0       0       0       0       0       0       0       
      +0       0       0       0       0
   823 ;;      Locals:         1       0       0       0       0       0       0       0       0       0       0       0       
      +0       0       0       0       0
   824 ;;      Temps:          0       5       0       0       0       0       0       0       0       0       0       0       
      +0       0       0       0       0
   825 ;;      Totals:         3       5       0       0       0       0       0       0       0       0       0       0       
      +0       0       0       0       0
   826 ;;Total ram usage:        8 bytes
   827 ;; Hardware stack levels used: 1
   828 ;; Hardware stack levels required when called: 5
   829 ;; This function calls:
   830 ;;		Nothing
   831 ;; This function is called by:
   832 ;;		_gpio_pin_initialize
   833 ;;		_lcd_4bit_send_command
   834 ;;		_lcd_4bit_send_char_data
   835 ;;		_lcd_8bit_send_command
   836 ;;		_lcd_8bit_send_char_data
   837 ;;		_lcd_8bits_send_enable
   838 ;;		_lcd_4bits_send_enable
   839 ;;		_lcd_4bits_command
   840 ;;		_Dc_motor_rotate_right
   841 ;;		_Dc_motor_rotate_left
   842 ;;		_Dc_motor_stop
   843 ;;		_keypad_get_value
   844 ;;		_led_turn_on
   845 ;;		_led_turn_off
   846 ;;		_Relay_on
   847 ;;		_Relay_off
   848 ;;		_Seven_Segm_Display_Number
   849 ;; This function uses a non-reentrant model
   850 ;;
   851                           
   852                           	psect	text3
   853   001450                     __ptext3:
   854                           	callstack 0
   855   001450                     _gpio_pin_write_logic:
   856                           	callstack 23
   857   001450                     
   858                           ;MCAL_Layer/GPIO/hal_gpio.c: 56:     Std_ReturnType ret = (Std_ReturnType)0X01;
   859   001450  0E01               	movlw	1
   860   001452  6E6E               	movwf	gpio_pin_write_logic@ret^0,c
   861                           
   862                           ;MCAL_Layer/GPIO/hal_gpio.c: 57:     if (((void*)0) == _pin_config || _pin_config->pin >
      +                           8 - 1) {
   863   001454  506C               	movf	gpio_pin_write_logic@_pin_config^0,w,c
   864   001456  B4D8               	btfsc	status,2,c
   865   001458  EF30  F00A         	goto	u2911
   866   00145C  EF32  F00A         	goto	u2910
   867   001460                     u2911:
   868   001460  EF43  F00A         	goto	l3661
   869   001464                     u2910:
   870   001464  506C               	movf	gpio_pin_write_logic@_pin_config^0,w,c
   871   001466  6ED9               	movwf	fsr2l,c
   872   001468  6ADA               	clrf	fsr2h,c
   873   00146A  30DF               	rrcf	223,w,c
   874   00146C  32E8               	rrcf	wreg,f,c
   875   00146E  32E8               	rrcf	wreg,f,c
   876   001470  0B07               	andlw	7
   877   001472  0100               	movlb	0	; () banked
   878   001474  6F80               	movwf	??_gpio_pin_write_logic& (0+255),b
   879   001476  0E07               	movlw	7
   880   001478  6580               	cpfsgt	??_gpio_pin_write_logic& (0+255),b
   881   00147A  EF41  F00A         	goto	u2921
   882   00147E  EF43  F00A         	goto	u2920
   883   001482                     u2921:
   884   001482  EF9C  F00A         	goto	l3671
   885   001486                     u2920:
   886   001486                     l3661:
   887                           
   888                           ;MCAL_Layer/GPIO/hal_gpio.c: 58:         ret = (Std_ReturnType)0X00;
   889   001486  0E00               	movlw	0
   890   001488  6E6E               	movwf	gpio_pin_write_logic@ret^0,c
   891                           
   892                           ;MCAL_Layer/GPIO/hal_gpio.c: 59:     } else {
   893   00148A  EFB1  F00A         	goto	l3673
   894   00148E                     l3663:
   895                           
   896                           ; BSR set to: 0
   897                           ;MCAL_Layer/GPIO/hal_gpio.c: 63:                 (*lat_registers[_pin_config->port] |= (
      +                          (uint8)1 << _pin_config->pin));
   898   00148E  506C               	movf	gpio_pin_write_logic@_pin_config^0,w,c
   899   001490  6ED9               	movwf	fsr2l,c
   900   001492  6ADA               	clrf	fsr2h,c
   901   001494  30DF               	rrcf	223,w,c
   902   001496  32E8               	rrcf	wreg,f,c
   903   001498  32E8               	rrcf	wreg,f,c
   904   00149A  0B07               	andlw	7
   905   00149C  6F80               	movwf	??_gpio_pin_write_logic& (0+255),b
   906   00149E  0E01               	movlw	1
   907   0014A0  6F81               	movwf	(??_gpio_pin_write_logic+1)& (0+255),b
   908   0014A2  2B80               	incf	??_gpio_pin_write_logic& (0+255),f,b
   909   0014A4  EF56  F00A         	goto	u2934
   910   0014A8                     u2935:
   911   0014A8  90D8               	bcf	status,0,c
   912   0014AA  3781               	rlcf	(??_gpio_pin_write_logic+1)& (0+255),f,b
   913   0014AC                     u2934:
   914   0014AC  2F80               	decfsz	??_gpio_pin_write_logic& (0+255),f,b
   915   0014AE  EF54  F00A         	goto	u2935
   916   0014B2  506C               	movf	gpio_pin_write_logic@_pin_config^0,w,c
   917   0014B4  6ED9               	movwf	fsr2l,c
   918   0014B6  6ADA               	clrf	fsr2h,c
   919   0014B8  50DF               	movf	223,w,c
   920   0014BA  0B07               	andlw	7
   921   0014BC  0D02               	mullw	2
   922   0014BE  50F3               	movf	243,w,c
   923   0014C0  0F0B               	addlw	low _lat_registers
   924   0014C2  6ED9               	movwf	fsr2l,c
   925   0014C4  6ADA               	clrf	fsr2h,c
   926   0014C6  CFDE F082          	movff	postinc2,??_gpio_pin_write_logic+2
   927   0014CA  CFDD F083          	movff	postdec2,??_gpio_pin_write_logic+3
   928   0014CE  C082  FFD9         	movff	??_gpio_pin_write_logic+2,fsr2l
   929   0014D2  C083  FFDA         	movff	??_gpio_pin_write_logic+3,fsr2h
   930   0014D6  0100               	movlb	0	; () banked
   931   0014D8  5181               	movf	(??_gpio_pin_write_logic+1)& (0+255),w,b
   932   0014DA  12DF               	iorwf	indf2,f,c
   933                           
   934                           ;MCAL_Layer/GPIO/hal_gpio.c: 64:                 break;
   935   0014DC  EFB1  F00A         	goto	l3673
   936   0014E0                     l3665:
   937                           
   938                           ; BSR set to: 0
   939                           ;MCAL_Layer/GPIO/hal_gpio.c: 67:                 (*lat_registers[_pin_config->port] &= ~
      +                          ((uint8)1 << _pin_config->pin));
   940   0014E0  506C               	movf	gpio_pin_write_logic@_pin_config^0,w,c
   941   0014E2  6ED9               	movwf	fsr2l,c
   942   0014E4  6ADA               	clrf	fsr2h,c
   943   0014E6  30DF               	rrcf	223,w,c
   944   0014E8  32E8               	rrcf	wreg,f,c
   945   0014EA  32E8               	rrcf	wreg,f,c
   946   0014EC  0B07               	andlw	7
   947   0014EE  6F80               	movwf	??_gpio_pin_write_logic& (0+255),b
   948   0014F0  0E01               	movlw	1
   949   0014F2  6F81               	movwf	(??_gpio_pin_write_logic+1)& (0+255),b
   950   0014F4  2B80               	incf	??_gpio_pin_write_logic& (0+255),f,b
   951   0014F6  EF7F  F00A         	goto	u2944
   952   0014FA                     u2945:
   953   0014FA  90D8               	bcf	status,0,c
   954   0014FC  3781               	rlcf	(??_gpio_pin_write_logic+1)& (0+255),f,b
   955   0014FE                     u2944:
   956   0014FE  2F80               	decfsz	??_gpio_pin_write_logic& (0+255),f,b
   957   001500  EF7D  F00A         	goto	u2945
   958   001504  0100               	movlb	0	; () banked
   959   001506  5181               	movf	(??_gpio_pin_write_logic+1)& (0+255),w,b
   960   001508  0AFF               	xorlw	255
   961   00150A  6F82               	movwf	(??_gpio_pin_write_logic+2)& (0+255),b
   962   00150C  506C               	movf	gpio_pin_write_logic@_pin_config^0,w,c
   963   00150E  6ED9               	movwf	fsr2l,c
   964   001510  6ADA               	clrf	fsr2h,c
   965   001512  50DF               	movf	223,w,c
   966   001514  0B07               	andlw	7
   967   001516  0D02               	mullw	2
   968   001518  50F3               	movf	243,w,c
   969   00151A  0F0B               	addlw	low _lat_registers
   970   00151C  6ED9               	movwf	fsr2l,c
   971   00151E  6ADA               	clrf	fsr2h,c
   972   001520  CFDE F083          	movff	postinc2,??_gpio_pin_write_logic+3
   973   001524  CFDD F084          	movff	postdec2,??_gpio_pin_write_logic+4
   974   001528  C083  FFD9         	movff	??_gpio_pin_write_logic+3,fsr2l
   975   00152C  C084  FFDA         	movff	??_gpio_pin_write_logic+4,fsr2h
   976   001530  5182               	movf	(??_gpio_pin_write_logic+2)& (0+255),w,b
   977   001532  16DF               	andwf	indf2,f,c
   978                           
   979                           ;MCAL_Layer/GPIO/hal_gpio.c: 68:                 break;
   980   001534  EFB1  F00A         	goto	l3673
   981   001538                     l3671:
   982                           
   983                           ; BSR set to: 0
   984   001538  506D               	movf	gpio_pin_write_logic@logic_^0,w,c
   985   00153A  6F80               	movwf	??_gpio_pin_write_logic& (0+255),b
   986   00153C  6B81               	clrf	(??_gpio_pin_write_logic+1)& (0+255),b
   987                           
   988                           ; Switch on 2 bytes has been partitioned into a top level switch of size 1, and 1 sub-sw
      +                          itches
   989                           ; Switch size 1, requested type "simple"
   990                           ; Number of cases is 1, Range of values is 0 to 0
   991                           ; switch strategies available:
   992                           ; Name         Instructions Cycles
   993                           ; simple_byte            4     3 (average)
   994                           ;	Chosen strategy is simple_byte
   995   00153E  5181               	movf	(??_gpio_pin_write_logic+1)& (0+255),w,b
   996   001540  0A00               	xorlw	0	; case 0
   997   001542  B4D8               	btfsc	status,2,c
   998   001544  EFA6  F00A         	goto	l4483
   999   001548  EF43  F00A         	goto	l3661
  1000   00154C                     l4483:
  1001                           
  1002                           ; BSR set to: 0
  1003                           ; Switch size 1, requested type "simple"
  1004                           ; Number of cases is 2, Range of values is 0 to 1
  1005                           ; switch strategies available:
  1006                           ; Name         Instructions Cycles
  1007                           ; simple_byte            7     4 (average)
  1008                           ;	Chosen strategy is simple_byte
  1009   00154C  5180               	movf	??_gpio_pin_write_logic& (0+255),w,b
  1010   00154E  0A00               	xorlw	0	; case 0
  1011   001550  B4D8               	btfsc	status,2,c
  1012   001552  EF70  F00A         	goto	l3665
  1013   001556  0A01               	xorlw	1	; case 1
  1014   001558  B4D8               	btfsc	status,2,c
  1015   00155A  EF47  F00A         	goto	l3663
  1016   00155E  EF43  F00A         	goto	l3661
  1017   001562                     l3673:
  1018                           
  1019                           ;MCAL_Layer/GPIO/hal_gpio.c: 77:     return ret;
  1020   001562  506E               	movf	gpio_pin_write_logic@ret^0,w,c
  1021   001564  0012               	return		;funcret
  1022   001566                     __end_of_gpio_pin_write_logic:
  1023                           	callstack 0
  1024                           
  1025 ;; *************** function _Interrupt_RBx_Init *****************
  1026 ;; Defined at:
  1027 ;;		line 90 in file "MCAL_LAYER/Interrupt/mcal_external_interrupt.c"
  1028 ;; Parameters:    Size  Location     Type
  1029 ;;  obj             1   18[COMRAM] PTR const struct .
  1030 ;;		 -> rb(6), 
  1031 ;; Auto vars:     Size  Location     Type
  1032 ;;  ret             1    7[BANK0 ] unsigned char 
  1033 ;; Return value:  Size  Location     Type
  1034 ;;                  1    wreg      unsigned char 
  1035 ;; Registers used:
  1036 ;;		wreg, fsr2l, fsr2h, status,2, status,0, prodl, prodh, cstack
  1037 ;; Tracked objects:
  1038 ;;		On entry : 0/0
  1039 ;;		On exit  : 0/0
  1040 ;;		Unchanged: 0/0
  1041 ;; Data sizes:     COMRAM   BANK0   BANK1   BANK2   BANK3   BANK4   BANK5   BANK6   BANK7   BANK8   BANK9  BANK10  BANK1
      +1  BANK12  BANK13  BANK14  BANK15
  1042 ;;      Params:         1       0       0       0       0       0       0       0       0       0       0       0       
      +0       0       0       0       0
  1043 ;;      Locals:         0       1       0       0       0       0       0       0       0       0       0       0       
      +0       0       0       0       0
  1044 ;;      Temps:          0       2       0       0       0       0       0       0       0       0       0       0       
      +0       0       0       0       0
  1045 ;;      Totals:         1       3       0       0       0       0       0       0       0       0       0       0       
      +0       0       0       0       0
  1046 ;;Total ram usage:        4 bytes
  1047 ;; Hardware stack levels used: 1
  1048 ;; Hardware stack levels required when called: 6
  1049 ;; This function calls:
  1050 ;;		_gpio_pin_direction_intialize
  1051 ;; This function is called by:
  1052 ;;		_main
  1053 ;; This function uses a non-reentrant model
  1054 ;;
  1055                           
  1056                           	psect	text4
  1057   001334                     __ptext4:
  1058                           	callstack 0
  1059   001334                     _Interrupt_RBx_Init:
  1060                           	callstack 24
  1061   001334                     
  1062                           ;MCAL_LAYER/Interrupt/mcal_external_interrupt.c: 92:     if (((void*)0) == obj) {
  1063   001334  506E               	movf	Interrupt_RBx_Init@obj^0,w,c
  1064   001336  A4D8               	btfss	status,2,c
  1065   001338  EFA0  F009         	goto	u3211
  1066   00133C  EFA2  F009         	goto	u3210
  1067   001340                     u3211:
  1068   001340  EFA7  F009         	goto	l504
  1069   001344                     u3210:
  1070   001344                     
  1071                           ;MCAL_LAYER/Interrupt/mcal_external_interrupt.c: 93:         ret = (Std_ReturnType)0X00;
  1072   001344  0E00               	movlw	0
  1073   001346  0100               	movlb	0	; () banked
  1074   001348  6F87               	movwf	Interrupt_RBx_Init@ret& (0+255),b
  1075                           
  1076                           ;MCAL_LAYER/Interrupt/mcal_external_interrupt.c: 94:     } else {
  1077   00134A  EF26  F00A         	goto	l3935
  1078   00134E                     l504:
  1079                           
  1080                           ;MCAL_LAYER/Interrupt/mcal_external_interrupt.c: 96:         (INTCONbits.RBIE = 0);
  1081   00134E  96F2               	bcf	242,3,c	;volatile
  1082                           
  1083                           ;MCAL_LAYER/Interrupt/mcal_external_interrupt.c: 97:         (INTCONbits.RBIF = 1);
  1084   001350  80F2               	bsf	242,0,c	;volatile
  1085                           
  1086                           ;MCAL_LAYER/Interrupt/mcal_external_interrupt.c: 112:         (INTCONbits.GIEH = 1);
  1087   001352  8EF2               	bsf	242,7,c	;volatile
  1088                           
  1089                           ;MCAL_LAYER/Interrupt/mcal_external_interrupt.c: 113:         (INTCONbits.PEIE = 1);
  1090   001354  8CF2               	bsf	242,6,c	;volatile
  1091   001356                     
  1092                           ;MCAL_LAYER/Interrupt/mcal_external_interrupt.c: 117:         ret = gpio_pin_direction_i
      +                          ntialize(&(obj->mcu_pin));
  1093   001356  506E               	movf	Interrupt_RBx_Init@obj^0,w,c
  1094   001358  0F05               	addlw	5
  1095   00135A  6E6C               	movwf	gpio_pin_direction_intialize@_pin_config^0,c
  1096   00135C  EC04  F009         	call	_gpio_pin_direction_intialize	;wreg free
  1097   001360  0100               	movlb	0	; () banked
  1098   001362  6F87               	movwf	Interrupt_RBx_Init@ret& (0+255),b
  1099                           
  1100                           ;MCAL_LAYER/Interrupt/mcal_external_interrupt.c: 120:         switch (obj->mcu_pin.pin) 
      +                          {
  1101   001364  EF00  F00A         	goto	l3933
  1102   001368                     l3913:
  1103                           
  1104                           ; BSR set to: 0
  1105                           ;MCAL_LAYER/Interrupt/mcal_external_interrupt.c: 122:                 RB4_Interrupt_Hand
      +                          ler_High = obj->External_CallBack_High;
  1106   001368  506E               	movf	Interrupt_RBx_Init@obj^0,w,c
  1107   00136A  6ED9               	movwf	fsr2l,c
  1108   00136C  6ADA               	clrf	fsr2h,c
  1109   00136E  CFDE F04D          	movff	postinc2,_RB4_Interrupt_Handler_High
  1110   001372  CFDD F04E          	movff	postdec2,_RB4_Interrupt_Handler_High+1
  1111   001376                     
  1112                           ; BSR set to: 0
  1113                           ;MCAL_LAYER/Interrupt/mcal_external_interrupt.c: 123:                 RB4_Interrupt_Hand
      +                          ler_Low = obj->External_CallBack_Low;
  1114   001376  506E               	movf	Interrupt_RBx_Init@obj^0,w,c
  1115   001378  6ED9               	movwf	fsr2l,c
  1116   00137A  6ADA               	clrf	fsr2h,c
  1117   00137C  0E02               	movlw	2
  1118   00137E  26D9               	addwf	fsr2l,f,c
  1119   001380  CFDE F04B          	movff	postinc2,_RB4_Interrupt_Handler_Low
  1120   001384  CFDD F04C          	movff	postdec2,_RB4_Interrupt_Handler_Low+1
  1121                           
  1122                           ;MCAL_LAYER/Interrupt/mcal_external_interrupt.c: 124:                 break;
  1123   001388  EF25  F00A         	goto	l508
  1124   00138C                     l3917:
  1125                           
  1126                           ; BSR set to: 0
  1127                           ;MCAL_LAYER/Interrupt/mcal_external_interrupt.c: 126:                 RB5_Interrupt_Hand
      +                          ler_High = obj->External_CallBack_High;
  1128   00138C  506E               	movf	Interrupt_RBx_Init@obj^0,w,c
  1129   00138E  6ED9               	movwf	fsr2l,c
  1130   001390  6ADA               	clrf	fsr2h,c
  1131   001392  CFDE F049          	movff	postinc2,_RB5_Interrupt_Handler_High
  1132   001396  CFDD F04A          	movff	postdec2,_RB5_Interrupt_Handler_High+1
  1133   00139A                     
  1134                           ; BSR set to: 0
  1135                           ;MCAL_LAYER/Interrupt/mcal_external_interrupt.c: 127:                 RB5_Interrupt_Hand
      +                          ler_Low = obj->External_CallBack_Low;
  1136   00139A  506E               	movf	Interrupt_RBx_Init@obj^0,w,c
  1137   00139C  6ED9               	movwf	fsr2l,c
  1138   00139E  6ADA               	clrf	fsr2h,c
  1139   0013A0  0E02               	movlw	2
  1140   0013A2  26D9               	addwf	fsr2l,f,c
  1141   0013A4  CFDE F047          	movff	postinc2,_RB5_Interrupt_Handler_Low
  1142   0013A8  CFDD F048          	movff	postdec2,_RB5_Interrupt_Handler_Low+1
  1143                           
  1144                           ;MCAL_LAYER/Interrupt/mcal_external_interrupt.c: 128:                 break;
  1145   0013AC  EF25  F00A         	goto	l508
  1146   0013B0                     l3921:
  1147                           
  1148                           ; BSR set to: 0
  1149                           ;MCAL_LAYER/Interrupt/mcal_external_interrupt.c: 130:                 RB6_Interrupt_Hand
      +                          ler_High = obj->External_CallBack_High;
  1150   0013B0  506E               	movf	Interrupt_RBx_Init@obj^0,w,c
  1151   0013B2  6ED9               	movwf	fsr2l,c
  1152   0013B4  6ADA               	clrf	fsr2h,c
  1153   0013B6  CFDE F045          	movff	postinc2,_RB6_Interrupt_Handler_High
  1154   0013BA  CFDD F046          	movff	postdec2,_RB6_Interrupt_Handler_High+1
  1155   0013BE                     
  1156                           ; BSR set to: 0
  1157                           ;MCAL_LAYER/Interrupt/mcal_external_interrupt.c: 131:                 RB6_Interrupt_Hand
      +                          ler_Low = obj->External_CallBack_Low;
  1158   0013BE  506E               	movf	Interrupt_RBx_Init@obj^0,w,c
  1159   0013C0  6ED9               	movwf	fsr2l,c
  1160   0013C2  6ADA               	clrf	fsr2h,c
  1161   0013C4  0E02               	movlw	2
  1162   0013C6  26D9               	addwf	fsr2l,f,c
  1163   0013C8  CFDE F043          	movff	postinc2,_RB6_Interrupt_Handler_Low
  1164   0013CC  CFDD F044          	movff	postdec2,_RB6_Interrupt_Handler_Low+1
  1165                           
  1166                           ;MCAL_LAYER/Interrupt/mcal_external_interrupt.c: 132:                 break;
  1167   0013D0  EF25  F00A         	goto	l508
  1168   0013D4                     l3925:
  1169                           
  1170                           ; BSR set to: 0
  1171                           ;MCAL_LAYER/Interrupt/mcal_external_interrupt.c: 134:                 RB7_Interrupt_Hand
      +                          ler_High = obj->External_CallBack_High;
  1172   0013D4  506E               	movf	Interrupt_RBx_Init@obj^0,w,c
  1173   0013D6  6ED9               	movwf	fsr2l,c
  1174   0013D8  6ADA               	clrf	fsr2h,c
  1175   0013DA  CFDE F041          	movff	postinc2,_RB7_Interrupt_Handler_High
  1176   0013DE  CFDD F042          	movff	postdec2,_RB7_Interrupt_Handler_High+1
  1177   0013E2                     
  1178                           ; BSR set to: 0
  1179                           ;MCAL_LAYER/Interrupt/mcal_external_interrupt.c: 135:                 RB7_Interrupt_Hand
      +                          ler_Low = obj->External_CallBack_Low;
  1180   0013E2  506E               	movf	Interrupt_RBx_Init@obj^0,w,c
  1181   0013E4  6ED9               	movwf	fsr2l,c
  1182   0013E6  6ADA               	clrf	fsr2h,c
  1183   0013E8  0E02               	movlw	2
  1184   0013EA  26D9               	addwf	fsr2l,f,c
  1185   0013EC  CFDE F03F          	movff	postinc2,_RB7_Interrupt_Handler_Low
  1186   0013F0  CFDD F040          	movff	postdec2,_RB7_Interrupt_Handler_Low+1
  1187                           
  1188                           ;MCAL_LAYER/Interrupt/mcal_external_interrupt.c: 136:                 break;
  1189   0013F4  EF25  F00A         	goto	l508
  1190   0013F8                     l3929:
  1191                           
  1192                           ; BSR set to: 0
  1193                           ;MCAL_LAYER/Interrupt/mcal_external_interrupt.c: 138:                 ret = (Std_ReturnT
      +                          ype)0X00;
  1194   0013F8  0E00               	movlw	0
  1195   0013FA  6F87               	movwf	Interrupt_RBx_Init@ret& (0+255),b
  1196                           
  1197                           ;MCAL_LAYER/Interrupt/mcal_external_interrupt.c: 139:                 break;
  1198   0013FC  EF25  F00A         	goto	l508
  1199   001400                     l3933:
  1200                           
  1201                           ; BSR set to: 0
  1202   001400  506E               	movf	Interrupt_RBx_Init@obj^0,w,c
  1203   001402  6ED9               	movwf	fsr2l,c
  1204   001404  6ADA               	clrf	fsr2h,c
  1205   001406  0E05               	movlw	5
  1206   001408  26D9               	addwf	fsr2l,f,c
  1207   00140A  30DF               	rrcf	223,w,c
  1208   00140C  32E8               	rrcf	wreg,f,c
  1209   00140E  32E8               	rrcf	wreg,f,c
  1210   001410  0B07               	andlw	7
  1211   001412  6F85               	movwf	??_Interrupt_RBx_Init& (0+255),b
  1212   001414  6B86               	clrf	(??_Interrupt_RBx_Init+1)& (0+255),b
  1213                           
  1214                           ; Switch on 2 bytes has been partitioned into a top level switch of size 1, and 1 sub-sw
      +                          itches
  1215                           ; Switch size 1, requested type "simple"
  1216                           ; Number of cases is 1, Range of values is 0 to 0
  1217                           ; switch strategies available:
  1218                           ; Name         Instructions Cycles
  1219                           ; simple_byte            4     3 (average)
  1220                           ;	Chosen strategy is simple_byte
  1221   001416  5186               	movf	(??_Interrupt_RBx_Init+1)& (0+255),w,b
  1222   001418  0A00               	xorlw	0	; case 0
  1223   00141A  B4D8               	btfsc	status,2,c
  1224   00141C  EF12  F00A         	goto	l4485
  1225   001420  EFFC  F009         	goto	l3929
  1226   001424                     l4485:
  1227                           
  1228                           ; BSR set to: 0
  1229                           ; Switch size 1, requested type "simple"
  1230                           ; Number of cases is 4, Range of values is 4 to 7
  1231                           ; switch strategies available:
  1232                           ; Name         Instructions Cycles
  1233                           ; simple_byte           13     7 (average)
  1234                           ;	Chosen strategy is simple_byte
  1235   001424  5185               	movf	??_Interrupt_RBx_Init& (0+255),w,b
  1236   001426  0A04               	xorlw	4	; case 4
  1237   001428  B4D8               	btfsc	status,2,c
  1238   00142A  EFB4  F009         	goto	l3913
  1239   00142E  0A01               	xorlw	1	; case 5
  1240   001430  B4D8               	btfsc	status,2,c
  1241   001432  EFC6  F009         	goto	l3917
  1242   001436  0A03               	xorlw	3	; case 6
  1243   001438  B4D8               	btfsc	status,2,c
  1244   00143A  EFD8  F009         	goto	l3921
  1245   00143E  0A01               	xorlw	1	; case 7
  1246   001440  B4D8               	btfsc	status,2,c
  1247   001442  EFEA  F009         	goto	l3925
  1248   001446  EFFC  F009         	goto	l3929
  1249   00144A                     l508:
  1250                           
  1251                           ; BSR set to: 0
  1252                           ;MCAL_LAYER/Interrupt/mcal_external_interrupt.c: 143:         (INTCONbits.RBIE = 1);
  1253   00144A  86F2               	bsf	242,3,c	;volatile
  1254   00144C                     l3935:
  1255                           
  1256                           ; BSR set to: 0
  1257                           ;MCAL_LAYER/Interrupt/mcal_external_interrupt.c: 145:     return ret;
  1258   00144C  5187               	movf	Interrupt_RBx_Init@ret& (0+255),w,b
  1259   00144E                     
  1260                           ; BSR set to: 0
  1261   00144E  0012               	return		;funcret
  1262   001450                     __end_of_Interrupt_RBx_Init:
  1263                           	callstack 0
  1264                           
  1265 ;; *************** function _gpio_pin_direction_intialize *****************
  1266 ;; Defined at:
  1267 ;;		line 19 in file "MCAL_Layer/GPIO/hal_gpio.c"
  1268 ;; Parameters:    Size  Location     Type
  1269 ;;  _pin_config     1   16[COMRAM] PTR const struct .
  1270 ;;		 -> rb(6), Relay_initialize@pin_obj(1), led_intialize@pin_obj(1), 
  1271 ;; Auto vars:     Size  Location     Type
  1272 ;;  ret             1   17[COMRAM] unsigned char 
  1273 ;; Return value:  Size  Location     Type
  1274 ;;                  1    wreg      unsigned char 
  1275 ;; Registers used:
  1276 ;;		wreg, fsr2l, fsr2h, status,2, status,0, prodl, prodh
  1277 ;; Tracked objects:
  1278 ;;		On entry : 0/0
  1279 ;;		On exit  : 0/0
  1280 ;;		Unchanged: 0/0
  1281 ;; Data sizes:     COMRAM   BANK0   BANK1   BANK2   BANK3   BANK4   BANK5   BANK6   BANK7   BANK8   BANK9  BANK10  BANK1
      +1  BANK12  BANK13  BANK14  BANK15
  1282 ;;      Params:         1       0       0       0       0       0       0       0       0       0       0       0       
      +0       0       0       0       0
  1283 ;;      Locals:         1       0       0       0       0       0       0       0       0       0       0       0       
      +0       0       0       0       0
  1284 ;;      Temps:          0       5       0       0       0       0       0       0       0       0       0       0       
      +0       0       0       0       0
  1285 ;;      Totals:         2       5       0       0       0       0       0       0       0       0       0       0       
      +0       0       0       0       0
  1286 ;;Total ram usage:        7 bytes
  1287 ;; Hardware stack levels used: 1
  1288 ;; Hardware stack levels required when called: 5
  1289 ;; This function calls:
  1290 ;;		Nothing
  1291 ;; This function is called by:
  1292 ;;		_gpio_pin_initialize
  1293 ;;		_Interrupt_RBx_Init
  1294 ;; This function uses a non-reentrant model
  1295 ;;
  1296                           
  1297                           	psect	text5
  1298   001208                     __ptext5:
  1299                           	callstack 0
  1300   001208                     _gpio_pin_direction_intialize:
  1301                           	callstack 23
  1302   001208                     
  1303                           ;MCAL_Layer/GPIO/hal_gpio.c: 20:     Std_ReturnType ret = (Std_ReturnType)0X01;
  1304   001208  0E01               	movlw	1
  1305   00120A  6E6D               	movwf	gpio_pin_direction_intialize@ret^0,c
  1306                           
  1307                           ;MCAL_Layer/GPIO/hal_gpio.c: 22:     if (((void*)0) == _pin_config || (_pin_config->pin 
      +                          > 8 - 1)) {
  1308   00120C  506C               	movf	gpio_pin_direction_intialize@_pin_config^0,w,c
  1309   00120E  B4D8               	btfsc	status,2,c
  1310   001210  EF0C  F009         	goto	u2951
  1311   001214  EF0E  F009         	goto	u2950
  1312   001218                     u2951:
  1313   001218  EF1F  F009         	goto	l3685
  1314   00121C                     u2950:
  1315   00121C  506C               	movf	gpio_pin_direction_intialize@_pin_config^0,w,c
  1316   00121E  6ED9               	movwf	fsr2l,c
  1317   001220  6ADA               	clrf	fsr2h,c
  1318   001222  30DF               	rrcf	223,w,c
  1319   001224  32E8               	rrcf	wreg,f,c
  1320   001226  32E8               	rrcf	wreg,f,c
  1321   001228  0B07               	andlw	7
  1322   00122A  0100               	movlb	0	; () banked
  1323   00122C  6F80               	movwf	??_gpio_pin_direction_intialize& (0+255),b
  1324   00122E  0E07               	movlw	7
  1325   001230  6580               	cpfsgt	??_gpio_pin_direction_intialize& (0+255),b
  1326   001232  EF1D  F009         	goto	u2961
  1327   001236  EF1F  F009         	goto	u2960
  1328   00123A                     u2961:
  1329   00123A  EF78  F009         	goto	l3693
  1330   00123E                     u2960:
  1331   00123E                     l3685:
  1332                           
  1333                           ;MCAL_Layer/GPIO/hal_gpio.c: 23:         ret = (Std_ReturnType)0X00;
  1334   00123E  0E00               	movlw	0
  1335   001240  6E6D               	movwf	gpio_pin_direction_intialize@ret^0,c
  1336                           
  1337                           ;MCAL_Layer/GPIO/hal_gpio.c: 24:     } else {
  1338   001242  EF98  F009         	goto	l3695
  1339   001246                     l3687:
  1340                           
  1341                           ; BSR set to: 0
  1342                           ;MCAL_Layer/GPIO/hal_gpio.c: 28:                 (*tris_registers[_pin_config->port] &= 
      +                          ~((uint8)1 << _pin_config->pin));
  1343   001246  506C               	movf	gpio_pin_direction_intialize@_pin_config^0,w,c
  1344   001248  6ED9               	movwf	fsr2l,c
  1345   00124A  6ADA               	clrf	fsr2h,c
  1346   00124C  30DF               	rrcf	223,w,c
  1347   00124E  32E8               	rrcf	wreg,f,c
  1348   001250  32E8               	rrcf	wreg,f,c
  1349   001252  0B07               	andlw	7
  1350   001254  6F80               	movwf	??_gpio_pin_direction_intialize& (0+255),b
  1351   001256  0E01               	movlw	1
  1352   001258  6F81               	movwf	(??_gpio_pin_direction_intialize+1)& (0+255),b
  1353   00125A  2B80               	incf	??_gpio_pin_direction_intialize& (0+255),f,b
  1354   00125C  EF32  F009         	goto	u2974
  1355   001260                     u2975:
  1356   001260  90D8               	bcf	status,0,c
  1357   001262  3781               	rlcf	(??_gpio_pin_direction_intialize+1)& (0+255),f,b
  1358   001264                     u2974:
  1359   001264  2F80               	decfsz	??_gpio_pin_direction_intialize& (0+255),f,b
  1360   001266  EF30  F009         	goto	u2975
  1361   00126A  0100               	movlb	0	; () banked
  1362   00126C  5181               	movf	(??_gpio_pin_direction_intialize+1)& (0+255),w,b
  1363   00126E  0AFF               	xorlw	255
  1364   001270  6F82               	movwf	(??_gpio_pin_direction_intialize+2)& (0+255),b
  1365   001272  506C               	movf	gpio_pin_direction_intialize@_pin_config^0,w,c
  1366   001274  6ED9               	movwf	fsr2l,c
  1367   001276  6ADA               	clrf	fsr2h,c
  1368   001278  50DF               	movf	223,w,c
  1369   00127A  0B07               	andlw	7
  1370   00127C  0D02               	mullw	2
  1371   00127E  50F3               	movf	243,w,c
  1372   001280  0F15               	addlw	low _tris_registers
  1373   001282  6ED9               	movwf	fsr2l,c
  1374   001284  6ADA               	clrf	fsr2h,c
  1375   001286  CFDE F083          	movff	postinc2,??_gpio_pin_direction_intialize+3
  1376   00128A  CFDD F084          	movff	postdec2,??_gpio_pin_direction_intialize+4
  1377   00128E  C083  FFD9         	movff	??_gpio_pin_direction_intialize+3,fsr2l
  1378   001292  C084  FFDA         	movff	??_gpio_pin_direction_intialize+4,fsr2h
  1379   001296  5182               	movf	(??_gpio_pin_direction_intialize+2)& (0+255),w,b
  1380   001298  16DF               	andwf	indf2,f,c
  1381                           
  1382                           ;MCAL_Layer/GPIO/hal_gpio.c: 30:                 break;
  1383   00129A  EF98  F009         	goto	l3695
  1384   00129E                     l3689:
  1385                           
  1386                           ; BSR set to: 0
  1387                           ;MCAL_Layer/GPIO/hal_gpio.c: 33:                 (*tris_registers[_pin_config->port] |= 
      +                          ((uint8)1 << _pin_config->pin));
  1388   00129E  506C               	movf	gpio_pin_direction_intialize@_pin_config^0,w,c
  1389   0012A0  6ED9               	movwf	fsr2l,c
  1390   0012A2  6ADA               	clrf	fsr2h,c
  1391   0012A4  30DF               	rrcf	223,w,c
  1392   0012A6  32E8               	rrcf	wreg,f,c
  1393   0012A8  32E8               	rrcf	wreg,f,c
  1394   0012AA  0B07               	andlw	7
  1395   0012AC  6F80               	movwf	??_gpio_pin_direction_intialize& (0+255),b
  1396   0012AE  0E01               	movlw	1
  1397   0012B0  6F81               	movwf	(??_gpio_pin_direction_intialize+1)& (0+255),b
  1398   0012B2  2B80               	incf	??_gpio_pin_direction_intialize& (0+255),f,b
  1399   0012B4  EF5E  F009         	goto	u2984
  1400   0012B8                     u2985:
  1401   0012B8  90D8               	bcf	status,0,c
  1402   0012BA  3781               	rlcf	(??_gpio_pin_direction_intialize+1)& (0+255),f,b
  1403   0012BC                     u2984:
  1404   0012BC  2F80               	decfsz	??_gpio_pin_direction_intialize& (0+255),f,b
  1405   0012BE  EF5C  F009         	goto	u2985
  1406   0012C2  506C               	movf	gpio_pin_direction_intialize@_pin_config^0,w,c
  1407   0012C4  6ED9               	movwf	fsr2l,c
  1408   0012C6  6ADA               	clrf	fsr2h,c
  1409   0012C8  50DF               	movf	223,w,c
  1410   0012CA  0B07               	andlw	7
  1411   0012CC  0D02               	mullw	2
  1412   0012CE  50F3               	movf	243,w,c
  1413   0012D0  0F15               	addlw	low _tris_registers
  1414   0012D2  6ED9               	movwf	fsr2l,c
  1415   0012D4  6ADA               	clrf	fsr2h,c
  1416   0012D6  CFDE F082          	movff	postinc2,??_gpio_pin_direction_intialize+2
  1417   0012DA  CFDD F083          	movff	postdec2,??_gpio_pin_direction_intialize+3
  1418   0012DE  C082  FFD9         	movff	??_gpio_pin_direction_intialize+2,fsr2l
  1419   0012E2  C083  FFDA         	movff	??_gpio_pin_direction_intialize+3,fsr2h
  1420   0012E6  0100               	movlb	0	; () banked
  1421   0012E8  5181               	movf	(??_gpio_pin_direction_intialize+1)& (0+255),w,b
  1422   0012EA  12DF               	iorwf	indf2,f,c
  1423                           
  1424                           ;MCAL_Layer/GPIO/hal_gpio.c: 34:                 break;
  1425   0012EC  EF98  F009         	goto	l3695
  1426   0012F0                     l3693:
  1427                           
  1428                           ; BSR set to: 0
  1429   0012F0  506C               	movf	gpio_pin_direction_intialize@_pin_config^0,w,c
  1430   0012F2  6ED9               	movwf	fsr2l,c
  1431   0012F4  6ADA               	clrf	fsr2h,c
  1432   0012F6  BCDF               	btfsc	indf2,6,c
  1433   0012F8  EF80  F009         	goto	u2991
  1434   0012FC  EF83  F009         	goto	u2990
  1435   001300                     u2991:
  1436   001300  0E01               	movlw	1
  1437   001302  EF84  F009         	goto	u3000
  1438   001306                     u2990:
  1439   001306  0E00               	movlw	0
  1440   001308                     u3000:
  1441   001308  6F80               	movwf	??_gpio_pin_direction_intialize& (0+255),b
  1442   00130A  6B81               	clrf	(??_gpio_pin_direction_intialize+1)& (0+255),b
  1443                           
  1444                           ; Switch on 2 bytes has been partitioned into a top level switch of size 1, and 1 sub-sw
      +                          itches
  1445                           ; Switch size 1, requested type "simple"
  1446                           ; Number of cases is 1, Range of values is 0 to 0
  1447                           ; switch strategies available:
  1448                           ; Name         Instructions Cycles
  1449                           ; simple_byte            4     3 (average)
  1450                           ;	Chosen strategy is simple_byte
  1451   00130C  5181               	movf	(??_gpio_pin_direction_intialize+1)& (0+255),w,b
  1452   00130E  0A00               	xorlw	0	; case 0
  1453   001310  B4D8               	btfsc	status,2,c
  1454   001312  EF8D  F009         	goto	l4487
  1455   001316  EF1F  F009         	goto	l3685
  1456   00131A                     l4487:
  1457                           
  1458                           ; BSR set to: 0
  1459                           ; Switch size 1, requested type "simple"
  1460                           ; Number of cases is 2, Range of values is 0 to 1
  1461                           ; switch strategies available:
  1462                           ; Name         Instructions Cycles
  1463                           ; simple_byte            7     4 (average)
  1464                           ;	Chosen strategy is simple_byte
  1465   00131A  5180               	movf	??_gpio_pin_direction_intialize& (0+255),w,b
  1466   00131C  0A00               	xorlw	0	; case 0
  1467   00131E  B4D8               	btfsc	status,2,c
  1468   001320  EF23  F009         	goto	l3687
  1469   001324  0A01               	xorlw	1	; case 1
  1470   001326  B4D8               	btfsc	status,2,c
  1471   001328  EF4F  F009         	goto	l3689
  1472   00132C  EF1F  F009         	goto	l3685
  1473   001330                     l3695:
  1474                           
  1475                           ;MCAL_Layer/GPIO/hal_gpio.c: 41:     return ret;
  1476   001330  506D               	movf	gpio_pin_direction_intialize@ret^0,w,c
  1477   001332  0012               	return		;funcret
  1478   001334                     __end_of_gpio_pin_direction_intialize:
  1479                           	callstack 0
  1480                           
  1481 ;; *************** function _Application_initialize *****************
  1482 ;; Defined at:
  1483 ;;		line 64 in file "app.c"
  1484 ;; Parameters:    Size  Location     Type
  1485 ;;		None
  1486 ;; Auto vars:     Size  Location     Type
  1487 ;;		None
  1488 ;; Return value:  Size  Location     Type
  1489 ;;                  1    wreg      void 
  1490 ;; Registers used:
  1491 ;;		wreg, status,2, cstack
  1492 ;; Tracked objects:
  1493 ;;		On entry : 0/0
  1494 ;;		On exit  : 0/0
  1495 ;;		Unchanged: 0/0
  1496 ;; Data sizes:     COMRAM   BANK0   BANK1   BANK2   BANK3   BANK4   BANK5   BANK6   BANK7   BANK8   BANK9  BANK10  BANK1
      +1  BANK12  BANK13  BANK14  BANK15
  1497 ;;      Params:         0       0       0       0       0       0       0       0       0       0       0       0       
      +0       0       0       0       0
  1498 ;;      Locals:         0       0       0       0       0       0       0       0       0       0       0       0       
      +0       0       0       0       0
  1499 ;;      Temps:          0       0       0       0       0       0       0       0       0       0       0       0       
      +0       0       0       0       0
  1500 ;;      Totals:         0       0       0       0       0       0       0       0       0       0       0       0       
      +0       0       0       0       0
  1501 ;;Total ram usage:        0 bytes
  1502 ;; Hardware stack levels used: 1
  1503 ;; Hardware stack levels required when called: 6
  1504 ;; This function calls:
  1505 ;;		_ecu_layer_initailize
  1506 ;; This function is called by:
  1507 ;;		_main
  1508 ;; This function uses a non-reentrant model
  1509 ;;
  1510                           
  1511                           	psect	text6
  1512   0019F8                     __ptext6:
  1513                           	callstack 0
  1514   0019F8                     _Application_initialize:
  1515                           	callstack 24
  1516   0019F8                     
  1517                           ;app.c: 65:     ecu_layer_initailize();
  1518   0019F8  EC05  F00D         	call	_ecu_layer_initailize	;wreg free
  1519   0019FC  0012               	return		;funcret
  1520   0019FE                     __end_of_Application_initialize:
  1521                           	callstack 0
  1522                           
  1523 ;; *************** function _ecu_layer_initailize *****************
  1524 ;; Defined at:
  1525 ;;		line 94 in file "ECU_LAYER/ecu_layer_init.c"
  1526 ;; Parameters:    Size  Location     Type
  1527 ;;		None
  1528 ;; Auto vars:     Size  Location     Type
  1529 ;;  ret             1    0        unsigned char 
  1530 ;; Return value:  Size  Location     Type
  1531 ;;                  1    wreg      void 
  1532 ;; Registers used:
  1533 ;;		wreg, status,2
  1534 ;; Tracked objects:
  1535 ;;		On entry : 0/0
  1536 ;;		On exit  : 0/0
  1537 ;;		Unchanged: 0/0
  1538 ;; Data sizes:     COMRAM   BANK0   BANK1   BANK2   BANK3   BANK4   BANK5   BANK6   BANK7   BANK8   BANK9  BANK10  BANK1
      +1  BANK12  BANK13  BANK14  BANK15
  1539 ;;      Params:         0       0       0       0       0       0       0       0       0       0       0       0       
      +0       0       0       0       0
  1540 ;;      Locals:         0       0       0       0       0       0       0       0       0       0       0       0       
      +0       0       0       0       0
  1541 ;;      Temps:          0       0       0       0       0       0       0       0       0       0       0       0       
      +0       0       0       0       0
  1542 ;;      Totals:         0       0       0       0       0       0       0       0       0       0       0       0       
      +0       0       0       0       0
  1543 ;;Total ram usage:        0 bytes
  1544 ;; Hardware stack levels used: 1
  1545 ;; Hardware stack levels required when called: 5
  1546 ;; This function calls:
  1547 ;;		Nothing
  1548 ;; This function is called by:
  1549 ;;		_Application_initialize
  1550 ;; This function uses a non-reentrant model
  1551 ;;
  1552                           
  1553                           	psect	text7
  1554   001A0A                     __ptext7:
  1555                           	callstack 0
  1556   001A0A                     _ecu_layer_initailize:
  1557                           	callstack 24
  1558   001A0A  0012               	return		;funcret
  1559   001A0C                     __end_of_ecu_layer_initailize:
  1560                           	callstack 0
  1561                           
  1562 ;; *************** function _Interrupt_Manager_High *****************
  1563 ;; Defined at:
  1564 ;;		line 36 in file "MCAL_LAYER/Interrupt/mcal_interrupt_manager.c"
  1565 ;; Parameters:    Size  Location     Type
  1566 ;;		None
  1567 ;; Auto vars:     Size  Location     Type
  1568 ;;		None
  1569 ;; Return value:  Size  Location     Type
  1570 ;;                  1    wreg      void 
  1571 ;; Registers used:
  1572 ;;		wreg, fsr2l, fsr2h, status,2, status,0, pcl, pclath, pclatu, tosl, prodl, prodh, cstack
  1573 ;; Tracked objects:
  1574 ;;		On entry : 0/0
  1575 ;;		On exit  : 0/0
  1576 ;;		Unchanged: 0/0
  1577 ;; Data sizes:     COMRAM   BANK0   BANK1   BANK2   BANK3   BANK4   BANK5   BANK6   BANK7   BANK8   BANK9  BANK10  BANK1
      +1  BANK12  BANK13  BANK14  BANK15
  1578 ;;      Params:         0       0       0       0       0       0       0       0       0       0       0       0       
      +0       0       0       0       0
  1579 ;;      Locals:         0       0       0       0       0       0       0       0       0       0       0       0       
      +0       0       0       0       0
  1580 ;;      Temps:          6       0       0       0       0       0       0       0       0       0       0       0       
      +0       0       0       0       0
  1581 ;;      Totals:         6       0       0       0       0       0       0       0       0       0       0       0       
      +0       0       0       0       0
  1582 ;;Total ram usage:        6 bytes
  1583 ;; Hardware stack levels used: 1
  1584 ;; Hardware stack levels required when called: 4
  1585 ;; This function calls:
  1586 ;;		_INT0_ISR
  1587 ;;		_INT1_ISR
  1588 ;;		_INT2_ISR
  1589 ;;		_RB4_ISR
  1590 ;;		_RB5_ISR
  1591 ;;		_RB6_ISR
  1592 ;;		_RB7_ISR
  1593 ;; This function is called by:
  1594 ;;		Interrupt level 2
  1595 ;; This function uses a non-reentrant model
  1596 ;;
  1597                           
  1598                           	psect	intcode
  1599   000008                     __pintcode:
  1600                           	callstack 0
  1601   000008                     _Interrupt_Manager_High:
  1602                           	callstack 23
  1603                           
  1604                           ;incstack = 0
  1605   000008  826F               	bsf	int$flags,1,c	;set compiler interrupt flag (level 2)
  1606   00000A  ED0B  F008         	call	int_func,f	;refresh shadow registers
  1607                           
  1608                           	psect	intcode_body
  1609   001016                     __pintcode_body:
  1610                           	callstack 23
  1611   001016                     int_func:
  1612                           	callstack 23
  1613   001016  0006               	pop		; remove dummy address from shadow register refresh
  1614   001018  CFFA F066          	movff	pclath,??_Interrupt_Manager_High
  1615   00101C  CFFB F067          	movff	pclatu,??_Interrupt_Manager_High+1
  1616   001020  CFD9 F068          	movff	fsr2l,??_Interrupt_Manager_High+2
  1617   001024  CFDA F069          	movff	fsr2h,??_Interrupt_Manager_High+3
  1618   001028  CFF3 F06A          	movff	prodl,??_Interrupt_Manager_High+4
  1619   00102C  CFF4 F06B          	movff	prodh,??_Interrupt_Manager_High+5
  1620   001030                     
  1621                           ;MCAL_LAYER/Interrupt/mcal_interrupt_manager.c: 38:     if ((INTCONbits.INT0IE == 1) && 
      +                          (INTCONbits.INT0IF == 1)) {
  1622   001030  A8F2               	btfss	242,4,c	;volatile
  1623   001032  EF1D  F008         	goto	i2u267_41
  1624   001036  EF1F  F008         	goto	i2u267_40
  1625   00103A                     i2u267_41:
  1626   00103A  EF28  F008         	goto	i2l3561
  1627   00103E                     i2u267_40:
  1628   00103E  A2F2               	btfss	242,1,c	;volatile
  1629   001040  EF24  F008         	goto	i2u268_41
  1630   001044  EF26  F008         	goto	i2u268_40
  1631   001048                     i2u268_41:
  1632   001048  EF28  F008         	goto	i2l3561
  1633   00104C                     i2u268_40:
  1634   00104C                     
  1635                           ;MCAL_LAYER/Interrupt/mcal_interrupt_manager.c: 39:         INT0_ISR();
  1636   00104C  EC03  F00D         	call	_INT0_ISR	;wreg free
  1637   001050                     i2l3561:
  1638                           
  1639                           ;MCAL_LAYER/Interrupt/mcal_interrupt_manager.c: 42:     if ((INTCON3bits.INT1IE == 1) &&
      +                           (INTCON3bits.INT1IF == 1)) {
  1640   001050  A6F0               	btfss	240,3,c	;volatile
  1641   001052  EF2D  F008         	goto	i2u269_41
  1642   001056  EF2F  F008         	goto	i2u269_40
  1643   00105A                     i2u269_41:
  1644   00105A  EF38  F008         	goto	i2l3567
  1645   00105E                     i2u269_40:
  1646   00105E  A0F0               	btfss	240,0,c	;volatile
  1647   001060  EF34  F008         	goto	i2u270_41
  1648   001064  EF36  F008         	goto	i2u270_40
  1649   001068                     i2u270_41:
  1650   001068  EF38  F008         	goto	i2l3567
  1651   00106C                     i2u270_40:
  1652   00106C                     
  1653                           ;MCAL_LAYER/Interrupt/mcal_interrupt_manager.c: 43:         INT1_ISR();
  1654   00106C  EC01  F00D         	call	_INT1_ISR	;wreg free
  1655   001070                     i2l3567:
  1656                           
  1657                           ;MCAL_LAYER/Interrupt/mcal_interrupt_manager.c: 46:     if ((INTCON3bits.INT2IE == 1) &&
      +                           (INTCON3bits.INT2IF == 1)) {
  1658   001070  A8F0               	btfss	240,4,c	;volatile
  1659   001072  EF3D  F008         	goto	i2u271_41
  1660   001076  EF3F  F008         	goto	i2u271_40
  1661   00107A                     i2u271_41:
  1662   00107A  EF48  F008         	goto	i2l3573
  1663   00107E                     i2u271_40:
  1664   00107E  A2F0               	btfss	240,1,c	;volatile
  1665   001080  EF44  F008         	goto	i2u272_41
  1666   001084  EF46  F008         	goto	i2u272_40
  1667   001088                     i2u272_41:
  1668   001088  EF48  F008         	goto	i2l3573
  1669   00108C                     i2u272_40:
  1670   00108C                     
  1671                           ;MCAL_LAYER/Interrupt/mcal_interrupt_manager.c: 47:         INT2_ISR();
  1672   00108C  ECFF  F00C         	call	_INT2_ISR	;wreg free
  1673   001090                     i2l3573:
  1674                           
  1675                           ;MCAL_LAYER/Interrupt/mcal_interrupt_manager.c: 51:     if ((INTCONbits.RBIE == 1) && (I
      +                          NTCONbits.RBIF == 1)) {
  1676   001090  A6F2               	btfss	242,3,c	;volatile
  1677   001092  EF4D  F008         	goto	i2u273_41
  1678   001096  EF4F  F008         	goto	i2u273_40
  1679   00109A                     i2u273_41:
  1680   00109A  EFF6  F008         	goto	i2l695
  1681   00109E                     i2u273_40:
  1682   00109E  A0F2               	btfss	242,0,c	;volatile
  1683   0010A0  EF54  F008         	goto	i2u274_41
  1684   0010A4  EF56  F008         	goto	i2u274_40
  1685   0010A8                     i2u274_41:
  1686   0010A8  EFF6  F008         	goto	i2l695
  1687   0010AC                     i2u274_40:
  1688   0010AC                     
  1689                           ;MCAL_LAYER/Interrupt/mcal_interrupt_manager.c: 55:         if ((PORTBbits.RB4 == GPIO_H
      +                          IGH) && RB4_f == 1) {
  1690   0010AC  A881               	btfss	129,4,c	;volatile
  1691   0010AE  EF5B  F008         	goto	i2u275_41
  1692   0010B2  EF5D  F008         	goto	i2u275_40
  1693   0010B6                     i2u275_41:
  1694   0010B6  EF6A  F008         	goto	i2l3585
  1695   0010BA                     i2u275_40:
  1696   0010BA  0435               	decf	_RB4_f^0,w,c	;volatile
  1697   0010BC  A4D8               	btfss	status,2,c
  1698   0010BE  EF63  F008         	goto	i2u276_41
  1699   0010C2  EF65  F008         	goto	i2u276_40
  1700   0010C6                     i2u276_41:
  1701   0010C6  EF6A  F008         	goto	i2l3585
  1702   0010CA                     i2u276_40:
  1703   0010CA                     
  1704                           ;MCAL_LAYER/Interrupt/mcal_interrupt_manager.c: 56:             RB4_f = 0;
  1705   0010CA  0E00               	movlw	0
  1706   0010CC  6E35               	movwf	_RB4_f^0,c	;volatile
  1707   0010CE                     
  1708                           ;MCAL_LAYER/Interrupt/mcal_interrupt_manager.c: 57:             RB4_ISR(0);
  1709   0010CE  0E00               	movlw	0
  1710   0010D0  ECB1  F00B         	call	_RB4_ISR
  1711   0010D4                     i2l3585:
  1712                           
  1713                           ;MCAL_LAYER/Interrupt/mcal_interrupt_manager.c: 59:         if ((PORTBbits.RB4 == GPIO_L
      +                          OW) && RB4_f == 0) {
  1714   0010D4  B881               	btfsc	129,4,c	;volatile
  1715   0010D6  EF6F  F008         	goto	i2u277_41
  1716   0010DA  EF71  F008         	goto	i2u277_40
  1717   0010DE                     i2u277_41:
  1718   0010DE  EF7E  F008         	goto	i2l3593
  1719   0010E2                     i2u277_40:
  1720   0010E2  5035               	movf	_RB4_f^0,w,c	;volatile
  1721   0010E4  A4D8               	btfss	status,2,c
  1722   0010E6  EF77  F008         	goto	i2u278_41
  1723   0010EA  EF79  F008         	goto	i2u278_40
  1724   0010EE                     i2u278_41:
  1725   0010EE  EF7E  F008         	goto	i2l3593
  1726   0010F2                     i2u278_40:
  1727   0010F2                     
  1728                           ;MCAL_LAYER/Interrupt/mcal_interrupt_manager.c: 60:             RB4_f = 1;
  1729   0010F2  0E01               	movlw	1
  1730   0010F4  6E35               	movwf	_RB4_f^0,c	;volatile
  1731   0010F6                     
  1732                           ;MCAL_LAYER/Interrupt/mcal_interrupt_manager.c: 61:             RB4_ISR(1);
  1733   0010F6  0E01               	movlw	1
  1734   0010F8  ECB1  F00B         	call	_RB4_ISR
  1735   0010FC                     i2l3593:
  1736                           
  1737                           ;MCAL_LAYER/Interrupt/mcal_interrupt_manager.c: 64:         if ((PORTBbits.RB5 == GPIO_H
      +                          IGH) && RB5_f == 1) {
  1738   0010FC  AA81               	btfss	129,5,c	;volatile
  1739   0010FE  EF83  F008         	goto	i2u279_41
  1740   001102  EF85  F008         	goto	i2u279_40
  1741   001106                     i2u279_41:
  1742   001106  EF92  F008         	goto	i2l3601
  1743   00110A                     i2u279_40:
  1744   00110A  0434               	decf	_RB5_f^0,w,c	;volatile
  1745   00110C  A4D8               	btfss	status,2,c
  1746   00110E  EF8B  F008         	goto	i2u280_41
  1747   001112  EF8D  F008         	goto	i2u280_40
  1748   001116                     i2u280_41:
  1749   001116  EF92  F008         	goto	i2l3601
  1750   00111A                     i2u280_40:
  1751   00111A                     
  1752                           ;MCAL_LAYER/Interrupt/mcal_interrupt_manager.c: 65:             RB5_f = 0;
  1753   00111A  0E00               	movlw	0
  1754   00111C  6E34               	movwf	_RB5_f^0,c	;volatile
  1755   00111E                     
  1756                           ;MCAL_LAYER/Interrupt/mcal_interrupt_manager.c: 66:             RB5_ISR(0);
  1757   00111E  0E00               	movlw	0
  1758   001120  EC72  F00B         	call	_RB5_ISR
  1759   001124                     i2l3601:
  1760                           
  1761                           ;MCAL_LAYER/Interrupt/mcal_interrupt_manager.c: 68:         if ((PORTBbits.RB5 == GPIO_L
      +                          OW) && RB5_f == 0) {
  1762   001124  BA81               	btfsc	129,5,c	;volatile
  1763   001126  EF97  F008         	goto	i2u281_41
  1764   00112A  EF99  F008         	goto	i2u281_40
  1765   00112E                     i2u281_41:
  1766   00112E  EFA6  F008         	goto	i2l3609
  1767   001132                     i2u281_40:
  1768   001132  5034               	movf	_RB5_f^0,w,c	;volatile
  1769   001134  A4D8               	btfss	status,2,c
  1770   001136  EF9F  F008         	goto	i2u282_41
  1771   00113A  EFA1  F008         	goto	i2u282_40
  1772   00113E                     i2u282_41:
  1773   00113E  EFA6  F008         	goto	i2l3609
  1774   001142                     i2u282_40:
  1775   001142                     
  1776                           ;MCAL_LAYER/Interrupt/mcal_interrupt_manager.c: 69:             RB5_f = 1;
  1777   001142  0E01               	movlw	1
  1778   001144  6E34               	movwf	_RB5_f^0,c	;volatile
  1779   001146                     
  1780                           ;MCAL_LAYER/Interrupt/mcal_interrupt_manager.c: 70:             RB5_ISR(1);
  1781   001146  0E01               	movlw	1
  1782   001148  EC72  F00B         	call	_RB5_ISR
  1783   00114C                     i2l3609:
  1784                           
  1785                           ;MCAL_LAYER/Interrupt/mcal_interrupt_manager.c: 73:         if ((PORTBbits.RB6 == GPIO_H
      +                          IGH) && RB6_f == 1) {
  1786   00114C  AC81               	btfss	129,6,c	;volatile
  1787   00114E  EFAB  F008         	goto	i2u283_41
  1788   001152  EFAD  F008         	goto	i2u283_40
  1789   001156                     i2u283_41:
  1790   001156  EFBA  F008         	goto	i2l3617
  1791   00115A                     i2u283_40:
  1792   00115A  0433               	decf	_RB6_f^0,w,c	;volatile
  1793   00115C  A4D8               	btfss	status,2,c
  1794   00115E  EFB3  F008         	goto	i2u284_41
  1795   001162  EFB5  F008         	goto	i2u284_40
  1796   001166                     i2u284_41:
  1797   001166  EFBA  F008         	goto	i2l3617
  1798   00116A                     i2u284_40:
  1799   00116A                     
  1800                           ;MCAL_LAYER/Interrupt/mcal_interrupt_manager.c: 74:             RB6_f = 0;
  1801   00116A  0E00               	movlw	0
  1802   00116C  6E33               	movwf	_RB6_f^0,c	;volatile
  1803   00116E                     
  1804                           ;MCAL_LAYER/Interrupt/mcal_interrupt_manager.c: 75:             RB6_ISR(0);
  1805   00116E  0E00               	movlw	0
  1806   001170  EC33  F00B         	call	_RB6_ISR
  1807   001174                     i2l3617:
  1808                           
  1809                           ;MCAL_LAYER/Interrupt/mcal_interrupt_manager.c: 77:         if ((PORTBbits.RB6 == GPIO_L
      +                          OW) && RB6_f == 0) {
  1810   001174  BC81               	btfsc	129,6,c	;volatile
  1811   001176  EFBF  F008         	goto	i2u285_41
  1812   00117A  EFC1  F008         	goto	i2u285_40
  1813   00117E                     i2u285_41:
  1814   00117E  EFCE  F008         	goto	i2l3625
  1815   001182                     i2u285_40:
  1816   001182  5033               	movf	_RB6_f^0,w,c	;volatile
  1817   001184  A4D8               	btfss	status,2,c
  1818   001186  EFC7  F008         	goto	i2u286_41
  1819   00118A  EFC9  F008         	goto	i2u286_40
  1820   00118E                     i2u286_41:
  1821   00118E  EFCE  F008         	goto	i2l3625
  1822   001192                     i2u286_40:
  1823   001192                     
  1824                           ;MCAL_LAYER/Interrupt/mcal_interrupt_manager.c: 78:             RB6_f = 1;
  1825   001192  0E01               	movlw	1
  1826   001194  6E33               	movwf	_RB6_f^0,c	;volatile
  1827   001196                     
  1828                           ;MCAL_LAYER/Interrupt/mcal_interrupt_manager.c: 79:             RB6_ISR(1);
  1829   001196  0E01               	movlw	1
  1830   001198  EC33  F00B         	call	_RB6_ISR
  1831   00119C                     i2l3625:
  1832                           
  1833                           ;MCAL_LAYER/Interrupt/mcal_interrupt_manager.c: 82:         if ((PORTBbits.RB7 == GPIO_H
      +                          IGH) && RB7_f == 1) {
  1834   00119C  AE81               	btfss	129,7,c	;volatile
  1835   00119E  EFD3  F008         	goto	i2u287_41
  1836   0011A2  EFD5  F008         	goto	i2u287_40
  1837   0011A6                     i2u287_41:
  1838   0011A6  EFE2  F008         	goto	i2l3633
  1839   0011AA                     i2u287_40:
  1840   0011AA  0432               	decf	_RB7_f^0,w,c	;volatile
  1841   0011AC  A4D8               	btfss	status,2,c
  1842   0011AE  EFDB  F008         	goto	i2u288_41
  1843   0011B2  EFDD  F008         	goto	i2u288_40
  1844   0011B6                     i2u288_41:
  1845   0011B6  EFE2  F008         	goto	i2l3633
  1846   0011BA                     i2u288_40:
  1847   0011BA                     
  1848                           ;MCAL_LAYER/Interrupt/mcal_interrupt_manager.c: 83:             RB7_f = 0;
  1849   0011BA  0E00               	movlw	0
  1850   0011BC  6E32               	movwf	_RB7_f^0,c	;volatile
  1851   0011BE                     
  1852                           ;MCAL_LAYER/Interrupt/mcal_interrupt_manager.c: 84:             RB7_ISR(0);
  1853   0011BE  0E00               	movlw	0
  1854   0011C0  ECF4  F00A         	call	_RB7_ISR
  1855   0011C4                     i2l3633:
  1856                           
  1857                           ;MCAL_LAYER/Interrupt/mcal_interrupt_manager.c: 86:         if ((PORTBbits.RB7 == GPIO_L
      +                          OW) && RB7_f == 0) {
  1858   0011C4  BE81               	btfsc	129,7,c	;volatile
  1859   0011C6  EFE7  F008         	goto	i2u289_41
  1860   0011CA  EFE9  F008         	goto	i2u289_40
  1861   0011CE                     i2u289_41:
  1862   0011CE  EFF6  F008         	goto	i2l695
  1863   0011D2                     i2u289_40:
  1864   0011D2  5032               	movf	_RB7_f^0,w,c	;volatile
  1865   0011D4  A4D8               	btfss	status,2,c
  1866   0011D6  EFEF  F008         	goto	i2u290_41
  1867   0011DA  EFF1  F008         	goto	i2u290_40
  1868   0011DE                     i2u290_41:
  1869   0011DE  EFF6  F008         	goto	i2l695
  1870   0011E2                     i2u290_40:
  1871   0011E2                     
  1872                           ;MCAL_LAYER/Interrupt/mcal_interrupt_manager.c: 87:             RB7_f = 1;
  1873   0011E2  0E01               	movlw	1
  1874   0011E4  6E32               	movwf	_RB7_f^0,c	;volatile
  1875   0011E6                     
  1876                           ;MCAL_LAYER/Interrupt/mcal_interrupt_manager.c: 88:             RB7_ISR(1);
  1877   0011E6  0E01               	movlw	1
  1878   0011E8  ECF4  F00A         	call	_RB7_ISR
  1879   0011EC                     i2l695:
  1880   0011EC  C06B  FFF4         	movff	??_Interrupt_Manager_High+5,prodh
  1881   0011F0  C06A  FFF3         	movff	??_Interrupt_Manager_High+4,prodl
  1882   0011F4  C069  FFDA         	movff	??_Interrupt_Manager_High+3,fsr2h
  1883   0011F8  C068  FFD9         	movff	??_Interrupt_Manager_High+2,fsr2l
  1884   0011FC  C067  FFFB         	movff	??_Interrupt_Manager_High+1,pclatu
  1885   001200  C066  FFFA         	movff	??_Interrupt_Manager_High,pclath
  1886   001204  926F               	bcf	int$flags,1,c	;clear compiler interrupt flag (level 2)
  1887   001206  0011               	retfie		f
  1888   001208                     __end_of_Interrupt_Manager_High:
  1889                           	callstack 0
  1890                           
  1891 ;; *************** function _RB7_ISR *****************
  1892 ;; Defined at:
  1893 ;;		line 527 in file "MCAL_LAYER/Interrupt/mcal_external_interrupt.c"
  1894 ;; Parameters:    Size  Location     Type
  1895 ;;  source          1    wreg     unsigned char 
  1896 ;; Auto vars:     Size  Location     Type
  1897 ;;  source          1    9[COMRAM] unsigned char 
  1898 ;; Return value:  Size  Location     Type
  1899 ;;                  1    wreg      void 
  1900 ;; Registers used:
  1901 ;;		wreg, fsr2l, fsr2h, status,2, status,0, pcl, pclath, pclatu, tosl, prodl, prodh, cstack
  1902 ;; Tracked objects:
  1903 ;;		On entry : 0/0
  1904 ;;		On exit  : 0/0
  1905 ;;		Unchanged: 0/0
  1906 ;; Data sizes:     COMRAM   BANK0   BANK1   BANK2   BANK3   BANK4   BANK5   BANK6   BANK7   BANK8   BANK9  BANK10  BANK1
      +1  BANK12  BANK13  BANK14  BANK15
  1907 ;;      Params:         0       0       0       0       0       0       0       0       0       0       0       0       
      +0       0       0       0       0
  1908 ;;      Locals:         1       0       0       0       0       0       0       0       0       0       0       0       
      +0       0       0       0       0
  1909 ;;      Temps:          0       0       0       0       0       0       0       0       0       0       0       0       
      +0       0       0       0       0
  1910 ;;      Totals:         1       0       0       0       0       0       0       0       0       0       0       0       
      +0       0       0       0       0
  1911 ;;Total ram usage:        1 bytes
  1912 ;; Hardware stack levels used: 1
  1913 ;; Hardware stack levels required when called: 3
  1914 ;; This function calls:
  1915 ;;		NULL
  1916 ;;		_High
  1917 ;;		_Low
  1918 ;; This function is called by:
  1919 ;;		_Interrupt_Manager_High
  1920 ;; This function uses a non-reentrant model
  1921 ;;
  1922                           
  1923                           	psect	text9
  1924   0015E8                     __ptext9:
  1925                           	callstack 0
  1926   0015E8                     _RB7_ISR:
  1927                           	callstack 23
  1928                           
  1929                           ;incstack = 0
  1930                           ;RB7_ISR@source stored from wreg
  1931   0015E8  6E65               	movwf	RB7_ISR@source^0,c
  1932   0015EA                     
  1933                           ;MCAL_LAYER/Interrupt/mcal_external_interrupt.c: 528:     (INTCONbits.RBIF = 1);
  1934   0015EA  80F2               	bsf	242,0,c	;volatile
  1935   0015EC                     
  1936                           ;MCAL_LAYER/Interrupt/mcal_external_interrupt.c: 530:     if (0 == source) {
  1937   0015EC  5065               	movf	RB7_ISR@source^0,w,c
  1938   0015EE  A4D8               	btfss	status,2,c
  1939   0015F0  EFFC  F00A         	goto	i2u221_41
  1940   0015F4  EFFE  F00A         	goto	i2u221_40
  1941   0015F8                     i2u221_41:
  1942   0015F8  EF15  F00B         	goto	i2l3085
  1943   0015FC                     i2u221_40:
  1944   0015FC                     
  1945                           ;MCAL_LAYER/Interrupt/mcal_external_interrupt.c: 531:         if (RB7_Interrupt_Handler_
      +                          High) {
  1946   0015FC  5041               	movf	_RB7_Interrupt_Handler_High^0,w,c
  1947   0015FE  1042               	iorwf	(_RB7_Interrupt_Handler_High+1)^0,w,c
  1948   001600  B4D8               	btfsc	status,2,c
  1949   001602  EF05  F00B         	goto	i2u222_41
  1950   001606  EF07  F00B         	goto	i2u222_40
  1951   00160A                     i2u222_41:
  1952   00160A  EF32  F00B         	goto	i2l650
  1953   00160E                     i2u222_40:
  1954   00160E                     
  1955                           ;MCAL_LAYER/Interrupt/mcal_external_interrupt.c: 532:             RB7_Interrupt_Handler_
      +                          High();
  1956   00160E  D802               	call	i2u223_48
  1957   001610  EF13  F00B         	goto	i2u223_49
  1958   001614                     i2u223_48:
  1959   001614  0005               	push	
  1960   001616  6EFA               	movwf	pclath,c
  1961   001618  5041               	movf	_RB7_Interrupt_Handler_High^0,w,c
  1962   00161A  6EFD               	movwf	tosl,c
  1963   00161C  5042               	movf	(_RB7_Interrupt_Handler_High+1)^0,w,c
  1964   00161E  6EFE               	movwf	tosh,c
  1965   001620  6AFF               	clrf	tosu,c
  1966   001622  50FA               	movf	pclath,w,c
  1967   001624  0012               	return		;indir
  1968   001626                     i2u223_49:
  1969   001626  EF32  F00B         	goto	i2l650
  1970   00162A                     i2l3085:
  1971   00162A  0465               	decf	RB7_ISR@source^0,w,c
  1972   00162C  A4D8               	btfss	status,2,c
  1973   00162E  EF1B  F00B         	goto	i2u224_41
  1974   001632  EF1D  F00B         	goto	i2u224_40
  1975   001636                     i2u224_41:
  1976   001636  EF32  F00B         	goto	i2l650
  1977   00163A                     i2u224_40:
  1978   00163A                     
  1979                           ;MCAL_LAYER/Interrupt/mcal_external_interrupt.c: 535:         if (RB7_Interrupt_Handler_
      +                          Low) {
  1980   00163A  503F               	movf	_RB7_Interrupt_Handler_Low^0,w,c
  1981   00163C  1040               	iorwf	(_RB7_Interrupt_Handler_Low+1)^0,w,c
  1982   00163E  B4D8               	btfsc	status,2,c
  1983   001640  EF24  F00B         	goto	i2u225_41
  1984   001644  EF26  F00B         	goto	i2u225_40
  1985   001648                     i2u225_41:
  1986   001648  EF32  F00B         	goto	i2l650
  1987   00164C                     i2u225_40:
  1988   00164C                     
  1989                           ;MCAL_LAYER/Interrupt/mcal_external_interrupt.c: 536:             RB7_Interrupt_Handler_
      +                          Low();
  1990   00164C  D802               	call	i2u226_48
  1991   00164E  EF32  F00B         	goto	i2u226_49
  1992   001652                     i2u226_48:
  1993   001652  0005               	push	
  1994   001654  6EFA               	movwf	pclath,c
  1995   001656  503F               	movf	_RB7_Interrupt_Handler_Low^0,w,c
  1996   001658  6EFD               	movwf	tosl,c
  1997   00165A  5040               	movf	(_RB7_Interrupt_Handler_Low+1)^0,w,c
  1998   00165C  6EFE               	movwf	tosh,c
  1999   00165E  6AFF               	clrf	tosu,c
  2000   001660  50FA               	movf	pclath,w,c
  2001   001662  0012               	return		;indir
  2002   001664                     i2u226_49:
  2003   001664                     i2l650:
  2004   001664  0012               	return		;funcret
  2005   001666                     __end_of_RB7_ISR:
  2006                           	callstack 0
  2007                           
  2008 ;; *************** function _RB6_ISR *****************
  2009 ;; Defined at:
  2010 ;;		line 513 in file "MCAL_LAYER/Interrupt/mcal_external_interrupt.c"
  2011 ;; Parameters:    Size  Location     Type
  2012 ;;  source          1    wreg     unsigned char 
  2013 ;; Auto vars:     Size  Location     Type
  2014 ;;  source          1    9[COMRAM] unsigned char 
  2015 ;; Return value:  Size  Location     Type
  2016 ;;                  1    wreg      void 
  2017 ;; Registers used:
  2018 ;;		wreg, fsr2l, fsr2h, status,2, status,0, pcl, pclath, pclatu, tosl, prodl, prodh, cstack
  2019 ;; Tracked objects:
  2020 ;;		On entry : 0/0
  2021 ;;		On exit  : 0/0
  2022 ;;		Unchanged: 0/0
  2023 ;; Data sizes:     COMRAM   BANK0   BANK1   BANK2   BANK3   BANK4   BANK5   BANK6   BANK7   BANK8   BANK9  BANK10  BANK1
      +1  BANK12  BANK13  BANK14  BANK15
  2024 ;;      Params:         0       0       0       0       0       0       0       0       0       0       0       0       
      +0       0       0       0       0
  2025 ;;      Locals:         1       0       0       0       0       0       0       0       0       0       0       0       
      +0       0       0       0       0
  2026 ;;      Temps:          0       0       0       0       0       0       0       0       0       0       0       0       
      +0       0       0       0       0
  2027 ;;      Totals:         1       0       0       0       0       0       0       0       0       0       0       0       
      +0       0       0       0       0
  2028 ;;Total ram usage:        1 bytes
  2029 ;; Hardware stack levels used: 1
  2030 ;; Hardware stack levels required when called: 3
  2031 ;; This function calls:
  2032 ;;		NULL
  2033 ;;		_High
  2034 ;;		_Low
  2035 ;; This function is called by:
  2036 ;;		_Interrupt_Manager_High
  2037 ;; This function uses a non-reentrant model
  2038 ;;
  2039                           
  2040                           	psect	text10
  2041   001666                     __ptext10:
  2042                           	callstack 0
  2043   001666                     _RB6_ISR:
  2044                           	callstack 23
  2045                           
  2046                           ;incstack = 0
  2047                           ;RB6_ISR@source stored from wreg
  2048   001666  6E65               	movwf	RB6_ISR@source^0,c
  2049   001668                     
  2050                           ;MCAL_LAYER/Interrupt/mcal_external_interrupt.c: 514:     (INTCONbits.RBIF = 1);
  2051   001668  80F2               	bsf	242,0,c	;volatile
  2052   00166A                     
  2053                           ;MCAL_LAYER/Interrupt/mcal_external_interrupt.c: 516:     if (0 == source) {
  2054   00166A  5065               	movf	RB6_ISR@source^0,w,c
  2055   00166C  A4D8               	btfss	status,2,c
  2056   00166E  EF3B  F00B         	goto	i2u215_41
  2057   001672  EF3D  F00B         	goto	i2u215_40
  2058   001676                     i2u215_41:
  2059   001676  EF54  F00B         	goto	i2l3071
  2060   00167A                     i2u215_40:
  2061   00167A                     
  2062                           ;MCAL_LAYER/Interrupt/mcal_external_interrupt.c: 517:         if (RB6_Interrupt_Handler_
      +                          High) {
  2063   00167A  5045               	movf	_RB6_Interrupt_Handler_High^0,w,c
  2064   00167C  1046               	iorwf	(_RB6_Interrupt_Handler_High+1)^0,w,c
  2065   00167E  B4D8               	btfsc	status,2,c
  2066   001680  EF44  F00B         	goto	i2u216_41
  2067   001684  EF46  F00B         	goto	i2u216_40
  2068   001688                     i2u216_41:
  2069   001688  EF71  F00B         	goto	i2l642
  2070   00168C                     i2u216_40:
  2071   00168C                     
  2072                           ;MCAL_LAYER/Interrupt/mcal_external_interrupt.c: 518:             RB6_Interrupt_Handler_
      +                          High();
  2073   00168C  D802               	call	i2u217_48
  2074   00168E  EF52  F00B         	goto	i2u217_49
  2075   001692                     i2u217_48:
  2076   001692  0005               	push	
  2077   001694  6EFA               	movwf	pclath,c
  2078   001696  5045               	movf	_RB6_Interrupt_Handler_High^0,w,c
  2079   001698  6EFD               	movwf	tosl,c
  2080   00169A  5046               	movf	(_RB6_Interrupt_Handler_High+1)^0,w,c
  2081   00169C  6EFE               	movwf	tosh,c
  2082   00169E  6AFF               	clrf	tosu,c
  2083   0016A0  50FA               	movf	pclath,w,c
  2084   0016A2  0012               	return		;indir
  2085   0016A4                     i2u217_49:
  2086   0016A4  EF71  F00B         	goto	i2l642
  2087   0016A8                     i2l3071:
  2088   0016A8  0465               	decf	RB6_ISR@source^0,w,c
  2089   0016AA  A4D8               	btfss	status,2,c
  2090   0016AC  EF5A  F00B         	goto	i2u218_41
  2091   0016B0  EF5C  F00B         	goto	i2u218_40
  2092   0016B4                     i2u218_41:
  2093   0016B4  EF71  F00B         	goto	i2l642
  2094   0016B8                     i2u218_40:
  2095   0016B8                     
  2096                           ;MCAL_LAYER/Interrupt/mcal_external_interrupt.c: 521:         if (RB6_Interrupt_Handler_
      +                          Low) {
  2097   0016B8  5043               	movf	_RB6_Interrupt_Handler_Low^0,w,c
  2098   0016BA  1044               	iorwf	(_RB6_Interrupt_Handler_Low+1)^0,w,c
  2099   0016BC  B4D8               	btfsc	status,2,c
  2100   0016BE  EF63  F00B         	goto	i2u219_41
  2101   0016C2  EF65  F00B         	goto	i2u219_40
  2102   0016C6                     i2u219_41:
  2103   0016C6  EF71  F00B         	goto	i2l642
  2104   0016CA                     i2u219_40:
  2105   0016CA                     
  2106                           ;MCAL_LAYER/Interrupt/mcal_external_interrupt.c: 522:             RB6_Interrupt_Handler_
      +                          Low();
  2107   0016CA  D802               	call	i2u220_48
  2108   0016CC  EF71  F00B         	goto	i2u220_49
  2109   0016D0                     i2u220_48:
  2110   0016D0  0005               	push	
  2111   0016D2  6EFA               	movwf	pclath,c
  2112   0016D4  5043               	movf	_RB6_Interrupt_Handler_Low^0,w,c
  2113   0016D6  6EFD               	movwf	tosl,c
  2114   0016D8  5044               	movf	(_RB6_Interrupt_Handler_Low+1)^0,w,c
  2115   0016DA  6EFE               	movwf	tosh,c
  2116   0016DC  6AFF               	clrf	tosu,c
  2117   0016DE  50FA               	movf	pclath,w,c
  2118   0016E0  0012               	return		;indir
  2119   0016E2                     i2u220_49:
  2120   0016E2                     i2l642:
  2121   0016E2  0012               	return		;funcret
  2122   0016E4                     __end_of_RB6_ISR:
  2123                           	callstack 0
  2124                           
  2125 ;; *************** function _RB5_ISR *****************
  2126 ;; Defined at:
  2127 ;;		line 499 in file "MCAL_LAYER/Interrupt/mcal_external_interrupt.c"
  2128 ;; Parameters:    Size  Location     Type
  2129 ;;  source          1    wreg     unsigned char 
  2130 ;; Auto vars:     Size  Location     Type
  2131 ;;  source          1    9[COMRAM] unsigned char 
  2132 ;; Return value:  Size  Location     Type
  2133 ;;                  1    wreg      void 
  2134 ;; Registers used:
  2135 ;;		wreg, fsr2l, fsr2h, status,2, status,0, pcl, pclath, pclatu, tosl, prodl, prodh, cstack
  2136 ;; Tracked objects:
  2137 ;;		On entry : 0/0
  2138 ;;		On exit  : 0/0
  2139 ;;		Unchanged: 0/0
  2140 ;; Data sizes:     COMRAM   BANK0   BANK1   BANK2   BANK3   BANK4   BANK5   BANK6   BANK7   BANK8   BANK9  BANK10  BANK1
      +1  BANK12  BANK13  BANK14  BANK15
  2141 ;;      Params:         0       0       0       0       0       0       0       0       0       0       0       0       
      +0       0       0       0       0
  2142 ;;      Locals:         1       0       0       0       0       0       0       0       0       0       0       0       
      +0       0       0       0       0
  2143 ;;      Temps:          0       0       0       0       0       0       0       0       0       0       0       0       
      +0       0       0       0       0
  2144 ;;      Totals:         1       0       0       0       0       0       0       0       0       0       0       0       
      +0       0       0       0       0
  2145 ;;Total ram usage:        1 bytes
  2146 ;; Hardware stack levels used: 1
  2147 ;; Hardware stack levels required when called: 3
  2148 ;; This function calls:
  2149 ;;		NULL
  2150 ;;		_High
  2151 ;;		_Low
  2152 ;; This function is called by:
  2153 ;;		_Interrupt_Manager_High
  2154 ;; This function uses a non-reentrant model
  2155 ;;
  2156                           
  2157                           	psect	text11
  2158   0016E4                     __ptext11:
  2159                           	callstack 0
  2160   0016E4                     _RB5_ISR:
  2161                           	callstack 23
  2162                           
  2163                           ;incstack = 0
  2164                           ;RB5_ISR@source stored from wreg
  2165   0016E4  6E65               	movwf	RB5_ISR@source^0,c
  2166   0016E6                     
  2167                           ;MCAL_LAYER/Interrupt/mcal_external_interrupt.c: 500:     (INTCONbits.RBIF = 1);
  2168   0016E6  80F2               	bsf	242,0,c	;volatile
  2169   0016E8                     
  2170                           ;MCAL_LAYER/Interrupt/mcal_external_interrupt.c: 502:     if (0 == source) {
  2171   0016E8  5065               	movf	RB5_ISR@source^0,w,c
  2172   0016EA  A4D8               	btfss	status,2,c
  2173   0016EC  EF7A  F00B         	goto	i2u209_41
  2174   0016F0  EF7C  F00B         	goto	i2u209_40
  2175   0016F4                     i2u209_41:
  2176   0016F4  EF93  F00B         	goto	i2l3057
  2177   0016F8                     i2u209_40:
  2178   0016F8                     
  2179                           ;MCAL_LAYER/Interrupt/mcal_external_interrupt.c: 503:         if (RB5_Interrupt_Handler_
      +                          High) {
  2180   0016F8  5049               	movf	_RB5_Interrupt_Handler_High^0,w,c
  2181   0016FA  104A               	iorwf	(_RB5_Interrupt_Handler_High+1)^0,w,c
  2182   0016FC  B4D8               	btfsc	status,2,c
  2183   0016FE  EF83  F00B         	goto	i2u210_41
  2184   001702  EF85  F00B         	goto	i2u210_40
  2185   001706                     i2u210_41:
  2186   001706  EFB0  F00B         	goto	i2l634
  2187   00170A                     i2u210_40:
  2188   00170A                     
  2189                           ;MCAL_LAYER/Interrupt/mcal_external_interrupt.c: 504:             RB5_Interrupt_Handler_
      +                          High();
  2190   00170A  D802               	call	i2u211_48
  2191   00170C  EF91  F00B         	goto	i2u211_49
  2192   001710                     i2u211_48:
  2193   001710  0005               	push	
  2194   001712  6EFA               	movwf	pclath,c
  2195   001714  5049               	movf	_RB5_Interrupt_Handler_High^0,w,c
  2196   001716  6EFD               	movwf	tosl,c
  2197   001718  504A               	movf	(_RB5_Interrupt_Handler_High+1)^0,w,c
  2198   00171A  6EFE               	movwf	tosh,c
  2199   00171C  6AFF               	clrf	tosu,c
  2200   00171E  50FA               	movf	pclath,w,c
  2201   001720  0012               	return		;indir
  2202   001722                     i2u211_49:
  2203   001722  EFB0  F00B         	goto	i2l634
  2204   001726                     i2l3057:
  2205   001726  0465               	decf	RB5_ISR@source^0,w,c
  2206   001728  A4D8               	btfss	status,2,c
  2207   00172A  EF99  F00B         	goto	i2u212_41
  2208   00172E  EF9B  F00B         	goto	i2u212_40
  2209   001732                     i2u212_41:
  2210   001732  EFB0  F00B         	goto	i2l634
  2211   001736                     i2u212_40:
  2212   001736                     
  2213                           ;MCAL_LAYER/Interrupt/mcal_external_interrupt.c: 507:         if (RB5_Interrupt_Handler_
      +                          Low) {
  2214   001736  5047               	movf	_RB5_Interrupt_Handler_Low^0,w,c
  2215   001738  1048               	iorwf	(_RB5_Interrupt_Handler_Low+1)^0,w,c
  2216   00173A  B4D8               	btfsc	status,2,c
  2217   00173C  EFA2  F00B         	goto	i2u213_41
  2218   001740  EFA4  F00B         	goto	i2u213_40
  2219   001744                     i2u213_41:
  2220   001744  EFB0  F00B         	goto	i2l634
  2221   001748                     i2u213_40:
  2222   001748                     
  2223                           ;MCAL_LAYER/Interrupt/mcal_external_interrupt.c: 508:             RB5_Interrupt_Handler_
      +                          Low();
  2224   001748  D802               	call	i2u214_48
  2225   00174A  EFB0  F00B         	goto	i2u214_49
  2226   00174E                     i2u214_48:
  2227   00174E  0005               	push	
  2228   001750  6EFA               	movwf	pclath,c
  2229   001752  5047               	movf	_RB5_Interrupt_Handler_Low^0,w,c
  2230   001754  6EFD               	movwf	tosl,c
  2231   001756  5048               	movf	(_RB5_Interrupt_Handler_Low+1)^0,w,c
  2232   001758  6EFE               	movwf	tosh,c
  2233   00175A  6AFF               	clrf	tosu,c
  2234   00175C  50FA               	movf	pclath,w,c
  2235   00175E  0012               	return		;indir
  2236   001760                     i2u214_49:
  2237   001760                     i2l634:
  2238   001760  0012               	return		;funcret
  2239   001762                     __end_of_RB5_ISR:
  2240                           	callstack 0
  2241                           
  2242 ;; *************** function _RB4_ISR *****************
  2243 ;; Defined at:
  2244 ;;		line 485 in file "MCAL_LAYER/Interrupt/mcal_external_interrupt.c"
  2245 ;; Parameters:    Size  Location     Type
  2246 ;;  source          1    wreg     unsigned char 
  2247 ;; Auto vars:     Size  Location     Type
  2248 ;;  source          1    9[COMRAM] unsigned char 
  2249 ;; Return value:  Size  Location     Type
  2250 ;;                  1    wreg      void 
  2251 ;; Registers used:
  2252 ;;		wreg, fsr2l, fsr2h, status,2, status,0, pcl, pclath, pclatu, tosl, prodl, prodh, cstack
  2253 ;; Tracked objects:
  2254 ;;		On entry : 0/0
  2255 ;;		On exit  : 0/0
  2256 ;;		Unchanged: 0/0
  2257 ;; Data sizes:     COMRAM   BANK0   BANK1   BANK2   BANK3   BANK4   BANK5   BANK6   BANK7   BANK8   BANK9  BANK10  BANK1
      +1  BANK12  BANK13  BANK14  BANK15
  2258 ;;      Params:         0       0       0       0       0       0       0       0       0       0       0       0       
      +0       0       0       0       0
  2259 ;;      Locals:         1       0       0       0       0       0       0       0       0       0       0       0       
      +0       0       0       0       0
  2260 ;;      Temps:          0       0       0       0       0       0       0       0       0       0       0       0       
      +0       0       0       0       0
  2261 ;;      Totals:         1       0       0       0       0       0       0       0       0       0       0       0       
      +0       0       0       0       0
  2262 ;;Total ram usage:        1 bytes
  2263 ;; Hardware stack levels used: 1
  2264 ;; Hardware stack levels required when called: 3
  2265 ;; This function calls:
  2266 ;;		NULL
  2267 ;;		_High
  2268 ;;		_Low
  2269 ;; This function is called by:
  2270 ;;		_Interrupt_Manager_High
  2271 ;; This function uses a non-reentrant model
  2272 ;;
  2273                           
  2274                           	psect	text12
  2275   001762                     __ptext12:
  2276                           	callstack 0
  2277   001762                     _RB4_ISR:
  2278                           	callstack 23
  2279                           
  2280                           ;incstack = 0
  2281                           ;RB4_ISR@source stored from wreg
  2282   001762  6E65               	movwf	RB4_ISR@source^0,c
  2283   001764                     
  2284                           ;MCAL_LAYER/Interrupt/mcal_external_interrupt.c: 486:     (INTCONbits.RBIF = 1);
  2285   001764  80F2               	bsf	242,0,c	;volatile
  2286   001766                     
  2287                           ;MCAL_LAYER/Interrupt/mcal_external_interrupt.c: 488:     if (0 == source) {
  2288   001766  5065               	movf	RB4_ISR@source^0,w,c
  2289   001768  A4D8               	btfss	status,2,c
  2290   00176A  EFB9  F00B         	goto	i2u203_41
  2291   00176E  EFBB  F00B         	goto	i2u203_40
  2292   001772                     i2u203_41:
  2293   001772  EFD2  F00B         	goto	i2l3043
  2294   001776                     i2u203_40:
  2295   001776                     
  2296                           ;MCAL_LAYER/Interrupt/mcal_external_interrupt.c: 489:         if (RB4_Interrupt_Handler_
      +                          High) {
  2297   001776  504D               	movf	_RB4_Interrupt_Handler_High^0,w,c
  2298   001778  104E               	iorwf	(_RB4_Interrupt_Handler_High+1)^0,w,c
  2299   00177A  B4D8               	btfsc	status,2,c
  2300   00177C  EFC2  F00B         	goto	i2u204_41
  2301   001780  EFC4  F00B         	goto	i2u204_40
  2302   001784                     i2u204_41:
  2303   001784  EFEF  F00B         	goto	i2l626
  2304   001788                     i2u204_40:
  2305   001788                     
  2306                           ;MCAL_LAYER/Interrupt/mcal_external_interrupt.c: 490:             RB4_Interrupt_Handler_
      +                          High();
  2307   001788  D802               	call	i2u205_48
  2308   00178A  EFD0  F00B         	goto	i2u205_49
  2309   00178E                     i2u205_48:
  2310   00178E  0005               	push	
  2311   001790  6EFA               	movwf	pclath,c
  2312   001792  504D               	movf	_RB4_Interrupt_Handler_High^0,w,c
  2313   001794  6EFD               	movwf	tosl,c
  2314   001796  504E               	movf	(_RB4_Interrupt_Handler_High+1)^0,w,c
  2315   001798  6EFE               	movwf	tosh,c
  2316   00179A  6AFF               	clrf	tosu,c
  2317   00179C  50FA               	movf	pclath,w,c
  2318   00179E  0012               	return		;indir
  2319   0017A0                     i2u205_49:
  2320   0017A0  EFEF  F00B         	goto	i2l626
  2321   0017A4                     i2l3043:
  2322   0017A4  0465               	decf	RB4_ISR@source^0,w,c
  2323   0017A6  A4D8               	btfss	status,2,c
  2324   0017A8  EFD8  F00B         	goto	i2u206_41
  2325   0017AC  EFDA  F00B         	goto	i2u206_40
  2326   0017B0                     i2u206_41:
  2327   0017B0  EFEF  F00B         	goto	i2l626
  2328   0017B4                     i2u206_40:
  2329   0017B4                     
  2330                           ;MCAL_LAYER/Interrupt/mcal_external_interrupt.c: 493:         if (RB4_Interrupt_Handler_
      +                          Low) {
  2331   0017B4  504B               	movf	_RB4_Interrupt_Handler_Low^0,w,c
  2332   0017B6  104C               	iorwf	(_RB4_Interrupt_Handler_Low+1)^0,w,c
  2333   0017B8  B4D8               	btfsc	status,2,c
  2334   0017BA  EFE1  F00B         	goto	i2u207_41
  2335   0017BE  EFE3  F00B         	goto	i2u207_40
  2336   0017C2                     i2u207_41:
  2337   0017C2  EFEF  F00B         	goto	i2l626
  2338   0017C6                     i2u207_40:
  2339   0017C6                     
  2340                           ;MCAL_LAYER/Interrupt/mcal_external_interrupt.c: 494:             RB4_Interrupt_Handler_
      +                          Low();
  2341   0017C6  D802               	call	i2u208_48
  2342   0017C8  EFEF  F00B         	goto	i2u208_49
  2343   0017CC                     i2u208_48:
  2344   0017CC  0005               	push	
  2345   0017CE  6EFA               	movwf	pclath,c
  2346   0017D0  504B               	movf	_RB4_Interrupt_Handler_Low^0,w,c
  2347   0017D2  6EFD               	movwf	tosl,c
  2348   0017D4  504C               	movf	(_RB4_Interrupt_Handler_Low+1)^0,w,c
  2349   0017D6  6EFE               	movwf	tosh,c
  2350   0017D8  6AFF               	clrf	tosu,c
  2351   0017DA  50FA               	movf	pclath,w,c
  2352   0017DC  0012               	return		;indir
  2353   0017DE                     i2u208_49:
  2354   0017DE                     i2l626:
  2355   0017DE  0012               	return		;funcret
  2356   0017E0                     __end_of_RB4_ISR:
  2357                           	callstack 0
  2358                           
  2359 ;; *************** function _Low *****************
  2360 ;; Defined at:
  2361 ;;		line 36 in file "app.c"
  2362 ;; Parameters:    Size  Location     Type
  2363 ;;		None
  2364 ;; Auto vars:     Size  Location     Type
  2365 ;;		None
  2366 ;; Return value:  Size  Location     Type
  2367 ;;                  1    wreg      void 
  2368 ;; Registers used:
  2369 ;;		wreg, fsr2l, fsr2h, status,2, status,0, prodl, prodh, cstack
  2370 ;; Tracked objects:
  2371 ;;		On entry : 0/0
  2372 ;;		On exit  : 0/0
  2373 ;;		Unchanged: 0/0
  2374 ;; Data sizes:     COMRAM   BANK0   BANK1   BANK2   BANK3   BANK4   BANK5   BANK6   BANK7   BANK8   BANK9  BANK10  BANK1
      +1  BANK12  BANK13  BANK14  BANK15
  2375 ;;      Params:         0       0       0       0       0       0       0       0       0       0       0       0       
      +0       0       0       0       0
  2376 ;;      Locals:         0       0       0       0       0       0       0       0       0       0       0       0       
      +0       0       0       0       0
  2377 ;;      Temps:          0       0       0       0       0       0       0       0       0       0       0       0       
      +0       0       0       0       0
  2378 ;;      Totals:         0       0       0       0       0       0       0       0       0       0       0       0       
      +0       0       0       0       0
  2379 ;;Total ram usage:        0 bytes
  2380 ;; Hardware stack levels used: 1
  2381 ;; Hardware stack levels required when called: 2
  2382 ;; This function calls:
  2383 ;;		_led_toggle_status
  2384 ;; This function is called by:
  2385 ;;		_RB4_ISR
  2386 ;;		_RB5_ISR
  2387 ;;		_RB6_ISR
  2388 ;;		_RB7_ISR
  2389 ;; This function uses a non-reentrant model
  2390 ;;
  2391                           
  2392                           	psect	text13
  2393   0019E0                     __ptext13:
  2394                           	callstack 0
  2395   0019E0                     _Low:
  2396                           	callstack 23
  2397   0019E0                     
  2398                           ;app.c: 37:  ret=led_toggle_status(&led1);
  2399   0019E0  0E3D               	movlw	low _led1
  2400   0019E2  6E61               	movwf	led_toggle_status@Led^0,c
  2401   0019E4  EC2D  F00C         	call	_led_toggle_status	;wreg free
  2402   0019E8  6E31               	movwf	_ret^0,c
  2403   0019EA  0012               	return		;funcret
  2404   0019EC                     __end_of_Low:
  2405                           	callstack 0
  2406                           
  2407 ;; *************** function _High *****************
  2408 ;; Defined at:
  2409 ;;		line 31 in file "app.c"
  2410 ;; Parameters:    Size  Location     Type
  2411 ;;		None
  2412 ;; Auto vars:     Size  Location     Type
  2413 ;;		None
  2414 ;; Return value:  Size  Location     Type
  2415 ;;                  1    wreg      void 
  2416 ;; Registers used:
  2417 ;;		wreg, fsr2l, fsr2h, status,2, status,0, prodl, prodh, cstack
  2418 ;; Tracked objects:
  2419 ;;		On entry : 0/0
  2420 ;;		On exit  : 0/0
  2421 ;;		Unchanged: 0/0
  2422 ;; Data sizes:     COMRAM   BANK0   BANK1   BANK2   BANK3   BANK4   BANK5   BANK6   BANK7   BANK8   BANK9  BANK10  BANK1
      +1  BANK12  BANK13  BANK14  BANK15
  2423 ;;      Params:         0       0       0       0       0       0       0       0       0       0       0       0       
      +0       0       0       0       0
  2424 ;;      Locals:         0       0       0       0       0       0       0       0       0       0       0       0       
      +0       0       0       0       0
  2425 ;;      Temps:          0       0       0       0       0       0       0       0       0       0       0       0       
      +0       0       0       0       0
  2426 ;;      Totals:         0       0       0       0       0       0       0       0       0       0       0       0       
      +0       0       0       0       0
  2427 ;;Total ram usage:        0 bytes
  2428 ;; Hardware stack levels used: 1
  2429 ;; Hardware stack levels required when called: 2
  2430 ;; This function calls:
  2431 ;;		_led_toggle_status
  2432 ;; This function is called by:
  2433 ;;		_RB4_ISR
  2434 ;;		_RB5_ISR
  2435 ;;		_RB6_ISR
  2436 ;;		_RB7_ISR
  2437 ;; This function uses a non-reentrant model
  2438 ;;
  2439                           
  2440                           	psect	text14
  2441   0019EC                     __ptext14:
  2442                           	callstack 0
  2443   0019EC                     _High:
  2444                           	callstack 23
  2445   0019EC                     
  2446                           ;app.c: 32:     ret=led_toggle_status(&led0);
  2447   0019EC  0E3E               	movlw	low _led0
  2448   0019EE  6E61               	movwf	led_toggle_status@Led^0,c
  2449   0019F0  EC2D  F00C         	call	_led_toggle_status	;wreg free
  2450   0019F4  6E31               	movwf	_ret^0,c
  2451   0019F6  0012               	return		;funcret
  2452   0019F8                     __end_of_High:
  2453                           	callstack 0
  2454                           
  2455 ;; *************** function _led_toggle_status *****************
  2456 ;; Defined at:
  2457 ;;		line 87 in file "ECU_LAYER/Led/ecu_led.c"
  2458 ;; Parameters:    Size  Location     Type
  2459 ;;  Led             1    5[COMRAM] PTR const struct .
  2460 ;;		 -> led1(1), led0(1), 
  2461 ;; Auto vars:     Size  Location     Type
  2462 ;;  pin_obj         1    8[COMRAM] struct .
  2463 ;;  ret             1    7[COMRAM] unsigned char 
  2464 ;; Return value:  Size  Location     Type
  2465 ;;                  1    wreg      unsigned char 
  2466 ;; Registers used:
  2467 ;;		wreg, fsr2l, fsr2h, status,2, status,0, prodl, prodh, cstack
  2468 ;; Tracked objects:
  2469 ;;		On entry : 0/0
  2470 ;;		On exit  : 0/0
  2471 ;;		Unchanged: 0/0
  2472 ;; Data sizes:     COMRAM   BANK0   BANK1   BANK2   BANK3   BANK4   BANK5   BANK6   BANK7   BANK8   BANK9  BANK10  BANK1
      +1  BANK12  BANK13  BANK14  BANK15
  2473 ;;      Params:         1       0       0       0       0       0       0       0       0       0       0       0       
      +0       0       0       0       0
  2474 ;;      Locals:         2       0       0       0       0       0       0       0       0       0       0       0       
      +0       0       0       0       0
  2475 ;;      Temps:          1       0       0       0       0       0       0       0       0       0       0       0       
      +0       0       0       0       0
  2476 ;;      Totals:         4       0       0       0       0       0       0       0       0       0       0       0       
      +0       0       0       0       0
  2477 ;;Total ram usage:        4 bytes
  2478 ;; Hardware stack levels used: 1
  2479 ;; Hardware stack levels required when called: 1
  2480 ;; This function calls:
  2481 ;;		_gpio_pin_toggle_logic
  2482 ;; This function is called by:
  2483 ;;		_High
  2484 ;;		_Low
  2485 ;; This function uses a non-reentrant model
  2486 ;;
  2487                           
  2488                           	psect	text15
  2489   00185A                     __ptext15:
  2490                           	callstack 0
  2491   00185A                     _led_toggle_status:
  2492                           	callstack 23
  2493   00185A                     
  2494                           ;ECU_LAYER/Led/ecu_led.c: 88:     Std_ReturnType ret = (Std_ReturnType)0X01;
  2495   00185A  0E01               	movlw	1
  2496   00185C  6E63               	movwf	led_toggle_status@ret^0,c
  2497                           
  2498                           ;ECU_LAYER/Led/ecu_led.c: 89:     if (((void*)0) == Led) {
  2499   00185E  5061               	movf	led_toggle_status@Led^0,w,c
  2500   001860  A4D8               	btfss	status,2,c
  2501   001862  EF35  F00C         	goto	i2u174_41
  2502   001866  EF37  F00C         	goto	i2u174_40
  2503   00186A                     i2u174_41:
  2504   00186A  EF3B  F00C         	goto	i2l272
  2505   00186E                     i2u174_40:
  2506   00186E                     
  2507                           ;ECU_LAYER/Led/ecu_led.c: 90:         ret = (Std_ReturnType)0X00;
  2508   00186E  0E00               	movlw	0
  2509   001870  6E63               	movwf	led_toggle_status@ret^0,c
  2510                           
  2511                           ;ECU_LAYER/Led/ecu_led.c: 91:     } else {
  2512   001872  EF65  F00C         	goto	i2l2765
  2513   001876                     i2l272:
  2514                           
  2515                           ;ECU_LAYER/Led/ecu_led.c: 93:         pin_config_t pin_obj = {
  2516   001876  C058  F064         	movff	led_toggle_status@F3073,led_toggle_status@pin_obj
  2517   00187A  5061               	movf	led_toggle_status@Led^0,w,c
  2518   00187C  6ED9               	movwf	fsr2l,c
  2519   00187E  6ADA               	clrf	fsr2h,c
  2520   001880  50DF               	movf	223,w,c
  2521   001882  0B07               	andlw	7
  2522   001884  6E62               	movwf	??_led_toggle_status^0,c
  2523   001886  5064               	movf	led_toggle_status@pin_obj^0,w,c
  2524   001888  1862               	xorwf	??_led_toggle_status^0,w,c
  2525   00188A  0BF8               	andlw	-8
  2526   00188C  1862               	xorwf	??_led_toggle_status^0,w,c
  2527   00188E  6E64               	movwf	led_toggle_status@pin_obj^0,c
  2528   001890  5061               	movf	led_toggle_status@Led^0,w,c
  2529   001892  6ED9               	movwf	fsr2l,c
  2530   001894  6ADA               	clrf	fsr2h,c
  2531   001896  30DF               	rrcf	223,w,c
  2532   001898  32E8               	rrcf	wreg,f,c
  2533   00189A  32E8               	rrcf	wreg,f,c
  2534   00189C  0B07               	andlw	7
  2535   00189E  6E62               	movwf	??_led_toggle_status^0,c
  2536   0018A0  4662               	rlncf	??_led_toggle_status^0,f,c
  2537   0018A2  4662               	rlncf	??_led_toggle_status^0,f,c
  2538   0018A4  4662               	rlncf	??_led_toggle_status^0,f,c
  2539   0018A6  5064               	movf	led_toggle_status@pin_obj^0,w,c
  2540   0018A8  1862               	xorwf	??_led_toggle_status^0,w,c
  2541   0018AA  0BC7               	andlw	-57
  2542   0018AC  1862               	xorwf	??_led_toggle_status^0,w,c
  2543   0018AE  6E64               	movwf	led_toggle_status@pin_obj^0,c
  2544   0018B0  9C64               	bcf	led_toggle_status@pin_obj^0,6,c
  2545   0018B2  5061               	movf	led_toggle_status@Led^0,w,c
  2546   0018B4  6ED9               	movwf	fsr2l,c
  2547   0018B6  6ADA               	clrf	fsr2h,c
  2548   0018B8  ACDF               	btfss	indf2,6,c
  2549   0018BA  D002               	bra	i2u175_45
  2550   0018BC  8E64               	bsf	led_toggle_status@pin_obj^0,7,c
  2551   0018BE  D001               	bra	i2u175_47
  2552   0018C0                     i2u175_45:
  2553   0018C0  9E64               	bcf	led_toggle_status@pin_obj^0,7,c
  2554   0018C2                     i2u175_47:
  2555   0018C2                     
  2556                           ;ECU_LAYER/Led/ecu_led.c: 99:         gpio_pin_toggle_logic(&pin_obj);
  2557   0018C2  0E64               	movlw	low led_toggle_status@pin_obj
  2558   0018C4  6E5C               	movwf	gpio_pin_toggle_logic@_pin_config^0,c
  2559   0018C6  ECB3  F00A         	call	_gpio_pin_toggle_logic	;wreg free
  2560   0018CA                     i2l2765:
  2561                           
  2562                           ;ECU_LAYER/Led/ecu_led.c: 101:     return ret;
  2563   0018CA  5063               	movf	led_toggle_status@ret^0,w,c
  2564   0018CC  0012               	return		;funcret
  2565   0018CE                     __end_of_led_toggle_status:
  2566                           	callstack 0
  2567                           
  2568 ;; *************** function _gpio_pin_toggle_logic *****************
  2569 ;; Defined at:
  2570 ;;		line 91 in file "MCAL_Layer/GPIO/hal_gpio.c"
  2571 ;; Parameters:    Size  Location     Type
  2572 ;;  _pin_config     1    0[COMRAM] PTR const struct .
  2573 ;;		 -> led_toggle_status@pin_obj(1), 
  2574 ;; Auto vars:     Size  Location     Type
  2575 ;;  ret             1    0        unsigned char 
  2576 ;; Return value:  Size  Location     Type
  2577 ;;                  1    wreg      unsigned char 
  2578 ;; Registers used:
  2579 ;;		wreg, fsr2l, fsr2h, status,2, status,0, prodl, prodh
  2580 ;; Tracked objects:
  2581 ;;		On entry : 0/0
  2582 ;;		On exit  : 0/0
  2583 ;;		Unchanged: 0/0
  2584 ;; Data sizes:     COMRAM   BANK0   BANK1   BANK2   BANK3   BANK4   BANK5   BANK6   BANK7   BANK8   BANK9  BANK10  BANK1
      +1  BANK12  BANK13  BANK14  BANK15
  2585 ;;      Params:         1       0       0       0       0       0       0       0       0       0       0       0       
      +0       0       0       0       0
  2586 ;;      Locals:         0       0       0       0       0       0       0       0       0       0       0       0       
      +0       0       0       0       0
  2587 ;;      Temps:          4       0       0       0       0       0       0       0       0       0       0       0       
      +0       0       0       0       0
  2588 ;;      Totals:         5       0       0       0       0       0       0       0       0       0       0       0       
      +0       0       0       0       0
  2589 ;;Total ram usage:        5 bytes
  2590 ;; Hardware stack levels used: 1
  2591 ;; This function calls:
  2592 ;;		Nothing
  2593 ;; This function is called by:
  2594 ;;		_led_toggle_status
  2595 ;; This function uses a non-reentrant model
  2596 ;;
  2597                           
  2598                           	psect	text16
  2599   001566                     __ptext16:
  2600                           	callstack 0
  2601   001566                     _gpio_pin_toggle_logic:
  2602                           	callstack 23
  2603   001566                     
  2604                           ;MCAL_Layer/GPIO/hal_gpio.c: 93:     if (((void*)0) == _pin_config || _pin_config->pin >
      +                           8 - 1) {
  2605   001566  505C               	movf	gpio_pin_toggle_logic@_pin_config^0,w,c
  2606   001568  B4D8               	btfsc	status,2,c
  2607   00156A  EFB9  F00A         	goto	i2u167_41
  2608   00156E  EFBB  F00A         	goto	i2u167_40
  2609   001572                     i2u167_41:
  2610   001572  EFCB  F00A         	goto	i2l2723
  2611   001576                     i2u167_40:
  2612   001576  505C               	movf	gpio_pin_toggle_logic@_pin_config^0,w,c
  2613   001578  6ED9               	movwf	fsr2l,c
  2614   00157A  6ADA               	clrf	fsr2h,c
  2615   00157C  30DF               	rrcf	223,w,c
  2616   00157E  32E8               	rrcf	wreg,f,c
  2617   001580  32E8               	rrcf	wreg,f,c
  2618   001582  0B07               	andlw	7
  2619   001584  6E5D               	movwf	??_gpio_pin_toggle_logic^0,c
  2620   001586  0E07               	movlw	7
  2621   001588  645D               	cpfsgt	??_gpio_pin_toggle_logic^0,c
  2622   00158A  EFC9  F00A         	goto	i2u168_41
  2623   00158E  EFCB  F00A         	goto	i2u168_40
  2624   001592                     i2u168_41:
  2625   001592  EFCD  F00A         	goto	i2l2725
  2626   001596                     i2u168_40:
  2627   001596                     i2l2723:
  2628                           
  2629                           ;MCAL_Layer/GPIO/hal_gpio.c: 95:     } else {
  2630   001596  EFF3  F00A         	goto	i2l407
  2631   00159A                     i2l2725:
  2632                           
  2633                           ;MCAL_Layer/GPIO/hal_gpio.c: 96:         (*lat_registers[_pin_config->port] ^= ((uint8)1
      +                           << _pin_config->pin));
  2634   00159A  505C               	movf	gpio_pin_toggle_logic@_pin_config^0,w,c
  2635   00159C  6ED9               	movwf	fsr2l,c
  2636   00159E  6ADA               	clrf	fsr2h,c
  2637   0015A0  30DF               	rrcf	223,w,c
  2638   0015A2  32E8               	rrcf	wreg,f,c
  2639   0015A4  32E8               	rrcf	wreg,f,c
  2640   0015A6  0B07               	andlw	7
  2641   0015A8  6E5D               	movwf	??_gpio_pin_toggle_logic^0,c
  2642   0015AA  0E01               	movlw	1
  2643   0015AC  6E5E               	movwf	(??_gpio_pin_toggle_logic+1)^0,c
  2644   0015AE  2A5D               	incf	??_gpio_pin_toggle_logic^0,f,c
  2645   0015B0  EFDC  F00A         	goto	i2u169_44
  2646   0015B4                     i2u169_45:
  2647   0015B4  90D8               	bcf	status,0,c
  2648   0015B6  365E               	rlcf	(??_gpio_pin_toggle_logic+1)^0,f,c
  2649   0015B8                     i2u169_44:
  2650   0015B8  2E5D               	decfsz	??_gpio_pin_toggle_logic^0,f,c
  2651   0015BA  EFDA  F00A         	goto	i2u169_45
  2652   0015BE  505C               	movf	gpio_pin_toggle_logic@_pin_config^0,w,c
  2653   0015C0  6ED9               	movwf	fsr2l,c
  2654   0015C2  6ADA               	clrf	fsr2h,c
  2655   0015C4  50DF               	movf	223,w,c
  2656   0015C6  0B07               	andlw	7
  2657   0015C8  0D02               	mullw	2
  2658   0015CA  50F3               	movf	243,w,c
  2659   0015CC  0F0B               	addlw	low _lat_registers
  2660   0015CE  6ED9               	movwf	fsr2l,c
  2661   0015D0  6ADA               	clrf	fsr2h,c
  2662   0015D2  CFDE F05F          	movff	postinc2,??_gpio_pin_toggle_logic+2
  2663   0015D6  CFDD F060          	movff	postdec2,??_gpio_pin_toggle_logic+3
  2664   0015DA  C05F  FFD9         	movff	??_gpio_pin_toggle_logic+2,fsr2l
  2665   0015DE  C060  FFDA         	movff	??_gpio_pin_toggle_logic+3,fsr2h
  2666   0015E2  505E               	movf	(??_gpio_pin_toggle_logic+1)^0,w,c
  2667   0015E4  1ADF               	xorwf	indf2,f,c
  2668   0015E6                     i2l407:
  2669   0015E6  0012               	return		;funcret
  2670   0015E8                     __end_of_gpio_pin_toggle_logic:
  2671                           	callstack 0
  2672                           
  2673 ;; *************** function _INT2_ISR *****************
  2674 ;; Defined at:
  2675 ;;		line 479 in file "MCAL_LAYER/Interrupt/mcal_external_interrupt.c"
  2676 ;; Parameters:    Size  Location     Type
  2677 ;;		None
  2678 ;; Auto vars:     Size  Location     Type
  2679 ;;		None
  2680 ;; Return value:  Size  Location     Type
  2681 ;;                  1    wreg      void 
  2682 ;; Registers used:
  2683 ;;		None
  2684 ;; Tracked objects:
  2685 ;;		On entry : 0/0
  2686 ;;		On exit  : 0/0
  2687 ;;		Unchanged: 0/0
  2688 ;; Data sizes:     COMRAM   BANK0   BANK1   BANK2   BANK3   BANK4   BANK5   BANK6   BANK7   BANK8   BANK9  BANK10  BANK1
      +1  BANK12  BANK13  BANK14  BANK15
  2689 ;;      Params:         0       0       0       0       0       0       0       0       0       0       0       0       
      +0       0       0       0       0
  2690 ;;      Locals:         0       0       0       0       0       0       0       0       0       0       0       0       
      +0       0       0       0       0
  2691 ;;      Temps:          0       0       0       0       0       0       0       0       0       0       0       0       
      +0       0       0       0       0
  2692 ;;      Totals:         0       0       0       0       0       0       0       0       0       0       0       0       
      +0       0       0       0       0
  2693 ;;Total ram usage:        0 bytes
  2694 ;; Hardware stack levels used: 1
  2695 ;; This function calls:
  2696 ;;		Nothing
  2697 ;; This function is called by:
  2698 ;;		_Interrupt_Manager_High
  2699 ;; This function uses a non-reentrant model
  2700 ;;
  2701                           
  2702                           	psect	text17
  2703   0019FE                     __ptext17:
  2704                           	callstack 0
  2705   0019FE                     _INT2_ISR:
  2706                           	callstack 26
  2707   0019FE                     
  2708                           ;MCAL_LAYER/Interrupt/mcal_external_interrupt.c: 480:     (INTCON3bits.INT2IF = 0);
  2709   0019FE  92F0               	bcf	240,1,c	;volatile
  2710   001A00  0012               	return		;funcret
  2711   001A02                     __end_of_INT2_ISR:
  2712                           	callstack 0
  2713                           
  2714 ;; *************** function _INT1_ISR *****************
  2715 ;; Defined at:
  2716 ;;		line 473 in file "MCAL_LAYER/Interrupt/mcal_external_interrupt.c"
  2717 ;; Parameters:    Size  Location     Type
  2718 ;;		None
  2719 ;; Auto vars:     Size  Location     Type
  2720 ;;		None
  2721 ;; Return value:  Size  Location     Type
  2722 ;;                  1    wreg      void 
  2723 ;; Registers used:
  2724 ;;		None
  2725 ;; Tracked objects:
  2726 ;;		On entry : 0/0
  2727 ;;		On exit  : 0/0
  2728 ;;		Unchanged: 0/0
  2729 ;; Data sizes:     COMRAM   BANK0   BANK1   BANK2   BANK3   BANK4   BANK5   BANK6   BANK7   BANK8   BANK9  BANK10  BANK1
      +1  BANK12  BANK13  BANK14  BANK15
  2730 ;;      Params:         0       0       0       0       0       0       0       0       0       0       0       0       
      +0       0       0       0       0
  2731 ;;      Locals:         0       0       0       0       0       0       0       0       0       0       0       0       
      +0       0       0       0       0
  2732 ;;      Temps:          0       0       0       0       0       0       0       0       0       0       0       0       
      +0       0       0       0       0
  2733 ;;      Totals:         0       0       0       0       0       0       0       0       0       0       0       0       
      +0       0       0       0       0
  2734 ;;Total ram usage:        0 bytes
  2735 ;; Hardware stack levels used: 1
  2736 ;; This function calls:
  2737 ;;		Nothing
  2738 ;; This function is called by:
  2739 ;;		_Interrupt_Manager_High
  2740 ;; This function uses a non-reentrant model
  2741 ;;
  2742                           
  2743                           	psect	text18
  2744   001A02                     __ptext18:
  2745                           	callstack 0
  2746   001A02                     _INT1_ISR:
  2747                           	callstack 26
  2748   001A02                     
  2749                           ;MCAL_LAYER/Interrupt/mcal_external_interrupt.c: 474:     (INTCON3bits.INT1IF = 0);
  2750   001A02  90F0               	bcf	240,0,c	;volatile
  2751   001A04  0012               	return		;funcret
  2752   001A06                     __end_of_INT1_ISR:
  2753                           	callstack 0
  2754                           
  2755 ;; *************** function _INT0_ISR *****************
  2756 ;; Defined at:
  2757 ;;		line 467 in file "MCAL_LAYER/Interrupt/mcal_external_interrupt.c"
  2758 ;; Parameters:    Size  Location     Type
  2759 ;;		None
  2760 ;; Auto vars:     Size  Location     Type
  2761 ;;		None
  2762 ;; Return value:  Size  Location     Type
  2763 ;;                  1    wreg      void 
  2764 ;; Registers used:
  2765 ;;		None
  2766 ;; Tracked objects:
  2767 ;;		On entry : 0/0
  2768 ;;		On exit  : 0/0
  2769 ;;		Unchanged: 0/0
  2770 ;; Data sizes:     COMRAM   BANK0   BANK1   BANK2   BANK3   BANK4   BANK5   BANK6   BANK7   BANK8   BANK9  BANK10  BANK1
      +1  BANK12  BANK13  BANK14  BANK15
  2771 ;;      Params:         0       0       0       0       0       0       0       0       0       0       0       0       
      +0       0       0       0       0
  2772 ;;      Locals:         0       0       0       0       0       0       0       0       0       0       0       0       
      +0       0       0       0       0
  2773 ;;      Temps:          0       0       0       0       0       0       0       0       0       0       0       0       
      +0       0       0       0       0
  2774 ;;      Totals:         0       0       0       0       0       0       0       0       0       0       0       0       
      +0       0       0       0       0
  2775 ;;Total ram usage:        0 bytes
  2776 ;; Hardware stack levels used: 1
  2777 ;; This function calls:
  2778 ;;		Nothing
  2779 ;; This function is called by:
  2780 ;;		_Interrupt_Manager_High
  2781 ;; This function uses a non-reentrant model
  2782 ;;
  2783                           
  2784                           	psect	text19
  2785   001A06                     __ptext19:
  2786                           	callstack 0
  2787   001A06                     _INT0_ISR:
  2788                           	callstack 26
  2789   001A06                     
  2790                           ;MCAL_LAYER/Interrupt/mcal_external_interrupt.c: 468:     (INTCONbits.INT0IF = 0);
  2791   001A06  92F2               	bcf	242,1,c	;volatile
  2792   001A08  0012               	return		;funcret
  2793   001A0A                     __end_of_INT0_ISR:
  2794                           	callstack 0
  2795                           
  2796                           	psect	text20
  2797   000000                     __ptext20:
  2798                           	callstack 0
  2799   000000                     
  2800                           	psect	rparam
  2801   000000                     
  2802                           	psect	temp
  2803   00006F                     btemp:
  2804                           	callstack 0
  2805   00006F                     	ds	1
  2806   000000                     int$flags	set	btemp
  2807   000000                     wtemp8	set	btemp+1
  2808   000000                     ttemp5	set	btemp+1
  2809   000000                     ttemp6	set	btemp+4
  2810   000000                     ttemp7	set	btemp+8
  2811                           
  2812                           	psect	config
  2813                           
  2814                           ; Padding undefined space
  2815   300000                     	org	3145728
  2816   300000  FF                 	db	255
  2817                           
  2818                           ;Config register CONFIG1H @ 0x300001
  2819                           ;	Oscillator Selection bits
  2820                           ;	OSC = HS, HS oscillator
  2821                           ;	Fail-Safe Clock Monitor Enable bit
  2822                           ;	FCMEN = OFF, Fail-Safe Clock Monitor disabled
  2823                           ;	Internal/External Oscillator Switchover bit
  2824                           ;	IESO = OFF, Oscillator Switchover mode disabled
  2825   300001                     	org	3145729
  2826   300001  02                 	db	2
  2827                           
  2828                           ;Config register CONFIG2L @ 0x300002
  2829                           ;	Power-up Timer Enable bit
  2830                           ;	PWRT = OFF, PWRT disabled
  2831                           ;	Brown-out Reset Enable bits
  2832                           ;	BOREN = OFF, Brown-out Reset disabled in hardware and software
  2833                           ;	Brown Out Reset Voltage bits
  2834                           ;	BORV = 1, 
  2835   300002                     	org	3145730
  2836   300002  09                 	db	9
  2837                           
  2838                           ;Config register CONFIG2H @ 0x300003
  2839                           ;	Watchdog Timer Enable bit
  2840                           ;	WDT = OFF, WDT disabled (control is placed on the SWDTEN bit)
  2841                           ;	Watchdog Timer Postscale Select bits
  2842                           ;	WDTPS = 32768, 1:32768
  2843   300003                     	org	3145731
  2844   300003  1E                 	db	30
  2845                           
  2846                           ; Padding undefined space
  2847   300004                     	org	3145732
  2848   300004  FF                 	db	255
  2849                           
  2850                           ;Config register CONFIG3H @ 0x300005
  2851                           ;	CCP2 MUX bit
  2852                           ;	CCP2MX = PORTC, CCP2 input/output is multiplexed with RC1
  2853                           ;	PORTB A/D Enable bit
  2854                           ;	PBADEN = OFF, PORTB<4:0> pins are configured as digital I/O on Reset
  2855                           ;	Low-Power Timer1 Oscillator Enable bit
  2856                           ;	LPT1OSC = OFF, Timer1 configured for higher power operation
  2857                           ;	MCLR Pin Enable bit
  2858                           ;	MCLRE = ON, MCLR pin enabled; RE3 input pin disabled
  2859   300005                     	org	3145733
  2860   300005  81                 	db	129
  2861                           
  2862                           ;Config register CONFIG4L @ 0x300006
  2863                           ;	Stack Full/Underflow Reset Enable bit
  2864                           ;	STVREN = ON, Stack full/underflow will cause Reset
  2865                           ;	Single-Supply ICSP Enable bit
  2866                           ;	LVP = OFF, Single-Supply ICSP disabled
  2867                           ;	Extended Instruction Set Enable bit
  2868                           ;	XINST = OFF, Instruction set extension and Indexed Addressing mode disabled (Legacy mo
      +                          de)
  2869                           ;	Background Debugger Enable bit
  2870                           ;	DEBUG = 0x1, unprogrammed default
  2871   300006                     	org	3145734
  2872   300006  81                 	db	129
  2873                           
  2874                           ; Padding undefined space
  2875   300007                     	org	3145735
  2876   300007  FF                 	db	255
  2877                           
  2878                           ;Config register CONFIG5L @ 0x300008
  2879                           ;	Code Protection bit
  2880                           ;	CP0 = OFF, Block 0 (000800-003FFFh) not code-protected
  2881                           ;	Code Protection bit
  2882                           ;	CP1 = OFF, Block 1 (004000-007FFFh) not code-protected
  2883                           ;	Code Protection bit
  2884                           ;	CP2 = OFF, Block 2 (008000-00BFFFh) not code-protected
  2885                           ;	Code Protection bit
  2886                           ;	CP3 = OFF, Block 3 (00C000-00FFFFh) not code-protected
  2887   300008                     	org	3145736
  2888   300008  0F                 	db	15
  2889                           
  2890                           ;Config register CONFIG5H @ 0x300009
  2891                           ;	Boot Block Code Protection bit
  2892                           ;	CPB = OFF, Boot block (000000-0007FFh) not code-protected
  2893                           ;	Data EEPROM Code Protection bit
  2894                           ;	CPD = OFF, Data EEPROM not code-protected
  2895   300009                     	org	3145737
  2896   300009  C0                 	db	192
  2897                           
  2898                           ;Config register CONFIG6L @ 0x30000A
  2899                           ;	Write Protection bit
  2900                           ;	WRT0 = OFF, Block 0 (000800-003FFFh) not write-protected
  2901                           ;	Write Protection bit
  2902                           ;	WRT1 = OFF, Block 1 (004000-007FFFh) not write-protected
  2903                           ;	Write Protection bit
  2904                           ;	WRT2 = OFF, Block 2 (008000-00BFFFh) not write-protected
  2905                           ;	Write Protection bit
  2906                           ;	WRT3 = OFF, Block 3 (00C000-00FFFFh) not write-protected
  2907   30000A                     	org	3145738
  2908   30000A  0F                 	db	15
  2909                           
  2910                           ;Config register CONFIG6H @ 0x30000B
  2911                           ;	Configuration Register Write Protection bit
  2912                           ;	WRTC = OFF, Configuration registers (300000-3000FFh) not write-protected
  2913                           ;	Boot Block Write Protection bit
  2914                           ;	WRTB = OFF, Boot Block (000000-0007FFh) not write-protected
  2915                           ;	Data EEPROM Write Protection bit
  2916                           ;	WRTD = OFF, Data EEPROM not write-protected
  2917   30000B                     	org	3145739
  2918   30000B  E0                 	db	224
  2919                           
  2920                           ;Config register CONFIG7L @ 0x30000C
  2921                           ;	Table Read Protection bit
  2922                           ;	EBTR0 = OFF, Block 0 (000800-003FFFh) not protected from table reads executed in other
      +                           blocks
  2923                           ;	Table Read Protection bit
  2924                           ;	EBTR1 = OFF, Block 1 (004000-007FFFh) not protected from table reads executed in other
      +                           blocks
  2925                           ;	Table Read Protection bit
  2926                           ;	EBTR2 = OFF, Block 2 (008000-00BFFFh) not protected from table reads executed in other
      +                           blocks
  2927                           ;	Table Read Protection bit
  2928                           ;	EBTR3 = OFF, Block 3 (00C000-00FFFFh) not protected from table reads executed in other
      +                           blocks
  2929   30000C                     	org	3145740
  2930   30000C  0F                 	db	15
  2931                           
  2932                           ;Config register CONFIG7H @ 0x30000D
  2933                           ;	Boot Block Table Read Protection bit
  2934                           ;	EBTRB = OFF, Boot Block (000000-0007FFh) not protected from table reads executed in ot
      +                          her blocks
  2935   30000D                     	org	3145741
  2936   30000D  40                 	db	64
  2937                           tosu	equ	0xFFF
  2938                           tosh	equ	0xFFE
  2939                           tosl	equ	0xFFD
  2940                           stkptr	equ	0xFFC
  2941                           pclatu	equ	0xFFB
  2942                           pclath	equ	0xFFA
  2943                           pcl	equ	0xFF9
  2944                           tblptru	equ	0xFF8
  2945                           tblptrh	equ	0xFF7
  2946                           tblptrl	equ	0xFF6
  2947                           tablat	equ	0xFF5
  2948                           prodh	equ	0xFF4
  2949                           prodl	equ	0xFF3
  2950                           indf0	equ	0xFEF
  2951                           postinc0	equ	0xFEE
  2952                           postdec0	equ	0xFED
  2953                           preinc0	equ	0xFEC
  2954                           plusw0	equ	0xFEB
  2955                           fsr0h	equ	0xFEA
  2956                           fsr0l	equ	0xFE9
  2957                           wreg	equ	0xFE8
  2958                           indf1	equ	0xFE7
  2959                           postinc1	equ	0xFE6
  2960                           postdec1	equ	0xFE5
  2961                           preinc1	equ	0xFE4
  2962                           plusw1	equ	0xFE3
  2963                           fsr1h	equ	0xFE2
  2964                           fsr1l	equ	0xFE1
  2965                           bsr	equ	0xFE0
  2966                           indf2	equ	0xFDF
  2967                           postinc2	equ	0xFDE
  2968                           postdec2	equ	0xFDD
  2969                           preinc2	equ	0xFDC
  2970                           plusw2	equ	0xFDB
  2971                           fsr2h	equ	0xFDA
  2972                           fsr2l	equ	0xFD9
  2973                           status	equ	0xFD8

Data Sizes:
    Strings     3
    Constant    16
    Data        62
    BSS         29
    Persistent  0
    Stack       0

Auto Spaces:
    Space          Size  Autos    Used
    COMRAM          126     19     110
    BANK0           128     12      12
    BANK1           256      0       0
    BANK2           256      0       0
    BANK3           256      0       0
    BANK4           256      0       0
    BANK5           256      0       0
    BANK6           256      0       0
    BANK7           256      0       0
    BANK8           256      0       0
    BANK9           256      0       0
    BANK10          256      0       0
    BANK11          256      0       0
    BANK12          256      0       0
    BANK13          256      0       0
    BANK14          256      0       0
    BANK15          128      0       0

Pointer List with Targets:

    f$.$buffer	PTR unsigned char  size(2) Largest target is 0

    f$.$source	PTR const unsigned char  size(2) Largest target is 0

    gpio_pin_direction_intialize@_pin_config	PTR const struct . size(1) Largest target is 6
		 -> led_intialize@pin_obj(BANK0[1]), rb(COMRAM[6]), Relay_initialize@pin_obj(COMRAM[1]), 

    gpio_pin_initialize@_pin_config	PTR const struct . size(1) Largest target is 1
		 -> led_intialize@pin_obj(BANK0[1]), Relay_initialize@pin_obj(COMRAM[1]), 

    gpio_pin_toggle_logic@_pin_config	PTR const struct . size(1) Largest target is 1
		 -> led_toggle_status@pin_obj(COMRAM[1]), 

    gpio_pin_write_logic@_pin_config	PTR const struct . size(1) Largest target is 1
		 -> led_intialize@pin_obj(BANK0[1]), led_turn_off@pin_obj(COMRAM[1]), led_turn_on@pin_obj(COMRAM[1]), Relay_initialize@pin_obj(COMRAM[1]), 
		 -> Relay_off@pin_obj(COMRAM[1]), Relay_on@pin_obj(COMRAM[1]), 

    INT0_Interrupt_Handler	PTR FTN()void  size(2) Largest target is 1
		 -> NULL(), 

    INT1_Interrupt_Handler	PTR FTN()void  size(2) Largest target is 1
		 -> NULL(), 

    INT2_Interrupt_Handler	PTR FTN()void  size(2) Largest target is 1
		 -> NULL(), 

    Interrupt_INTx_Clear_Flag@obj$External_CallBack	PTR FTN()void  size(2) Largest target is 0

    Interrupt_INTx_Disable@obj$External_CallBack	PTR FTN()void  size(2) Largest target is 0

    Interrupt_INTx_Edge_Init@obj$External_CallBack	PTR FTN()void  size(2) Largest target is 0

    Interrupt_INTx_Enable@obj$External_CallBack	PTR FTN()void  size(2) Largest target is 0

    Interrupt_INTx_Pin_Init@obj$External_CallBack	PTR FTN()void  size(2) Largest target is 0

    Interrupt_RBx_Init@obj	PTR const struct . size(1) Largest target is 6
		 -> rb(COMRAM[6]), 

    Interrupt_RBx_Init@obj$External_CallBack_High	PTR FTN()void  size(2) Largest target is 1
		 -> High(), 

    Interrupt_RBx_Init@obj$External_CallBack_Low	PTR FTN()void  size(2) Largest target is 1
		 -> Low(), 

    Interrupt_Set_Interrupt_Handler@obj$External_CallBack	PTR FTN()void  size(2) Largest target is 0

    lat_registers	PTR volatile unsigned char [5] size(2) Largest target is 1
		 -> LATA(BITBIGSFRll[1]), LATB(BITBIGSFRlh[1]), LATC(BITBIGSFRlh[1]), LATD(BITBIGSFRlh[1]), 
		 -> LATE(BITBIGSFRlh[1]), 

    led_intialize@Led	PTR const struct . size(1) Largest target is 1
		 -> led0(COMRAM[1]), led1(COMRAM[1]), led2(COMRAM[1]), 

    led_toggle_status@Led	PTR const struct . size(1) Largest target is 1
		 -> led0(COMRAM[1]), led1(COMRAM[1]), 

    port_registers	PTR volatile unsigned char [5] size(2) Largest target is 1
		 -> PORTA(BITBIGSFRll[1]), PORTB(BITBIGSFRll[1]), PORTC(BITBIGSFRll[1]), PORTD(BITBIGSFRll[1]), 
		 -> PORTE(BITBIGSFRll[1]), 

    rb$External_CallBack_High	PTR FTN()void  size(2) Largest target is 1
		 -> High(), 

    rb$External_CallBack_Low	PTR FTN()void  size(2) Largest target is 1
		 -> Low(), 

    RB4_Interrupt_Handler_High	PTR FTN()void  size(2) Largest target is 1
		 -> High(), NULL(), 

    RB4_Interrupt_Handler_Low	PTR FTN()void  size(2) Largest target is 1
		 -> Low(), NULL(), 

    RB5_Interrupt_Handler_High	PTR FTN()void  size(2) Largest target is 1
		 -> High(), NULL(), 

    RB5_Interrupt_Handler_Low	PTR FTN()void  size(2) Largest target is 1
		 -> Low(), NULL(), 

    RB6_Interrupt_Handler_High	PTR FTN()void  size(2) Largest target is 1
		 -> High(), NULL(), 

    RB6_Interrupt_Handler_Low	PTR FTN()void  size(2) Largest target is 1
		 -> Low(), NULL(), 

    RB7_Interrupt_Handler_High	PTR FTN()void  size(2) Largest target is 1
		 -> High(), NULL(), 

    RB7_Interrupt_Handler_Low	PTR FTN()void  size(2) Largest target is 1
		 -> Low(), NULL(), 

    S1887$buffer	PTR unsigned char  size(2) Largest target is 0

    S1887$source	PTR const unsigned char  size(2) Largest target is 0

    S829$External_CallBack	PTR FTN()void  size(2) Largest target is 0

    S862$External_CallBack_High	PTR FTN()void  size(2) Largest target is 1
		 -> High(), 

    S862$External_CallBack_Low	PTR FTN()void  size(2) Largest target is 1
		 -> Low(), 

    sp__memset	PTR void  size(2) Largest target is 0

    tris_registers	PTR volatile unsigned char [5] size(2) Largest target is 1
		 -> TRISA(BITBIGSFRll[1]), TRISB(BITBIGSFRhll[1]), TRISC(BITBIGSFRhll[1]), TRISD(BITBIGSFRhll[1]), 
		 -> TRISE(BITBIGSFRhll[1]), 

    vfprintf$0	PTR struct _IO_FILE size(1) Largest target is 12
		 -> sprintf@f(COMRAM[12]), 

    vfprintf$1	PTR const unsigned char  size(1) Largest target is 3
		 -> STR_1(CODE[3]), STR_2(CODE[3]), STR_3(CODE[3]), 

    vfprintf$2	PTR PTR void  size(1) Largest target is 1
		 -> sprintf@ap(COMRAM[1]), 


Critical Paths under _main in COMRAM

    _main->_Interrupt_RBx_Init
    _gpio_pin_initialize->_gpio_pin_write_logic
    _Interrupt_RBx_Init->_gpio_pin_direction_intialize

Critical Paths under _Interrupt_Manager_High in COMRAM

    _Interrupt_Manager_High->_RB4_ISR
    _Interrupt_Manager_High->_RB5_ISR
    _Interrupt_Manager_High->_RB6_ISR
    _Interrupt_Manager_High->_RB7_ISR
    _Low->_led_toggle_status
    _High->_led_toggle_status
    _led_toggle_status->_gpio_pin_toggle_logic

Critical Paths under _main in BANK0

    _main->_led_intialize
    _led_intialize->_gpio_pin_initialize
    _gpio_pin_initialize->_gpio_pin_direction_intialize
    _gpio_pin_initialize->_gpio_pin_write_logic
    _Interrupt_RBx_Init->_gpio_pin_direction_intialize

Critical Paths under _Interrupt_Manager_High in BANK0

    None.

Critical Paths under _main in BANK1

    None.

Critical Paths under _Interrupt_Manager_High in BANK1

    None.

Critical Paths under _main in BANK2

    None.

Critical Paths under _Interrupt_Manager_High in BANK2

    None.

Critical Paths under _main in BANK3

    None.

Critical Paths under _Interrupt_Manager_High in BANK3

    None.

Critical Paths under _main in BANK4

    None.

Critical Paths under _Interrupt_Manager_High in BANK4

    None.

Critical Paths under _main in BANK5

    None.

Critical Paths under _Interrupt_Manager_High in BANK5

    None.

Critical Paths under _main in BANK6

    None.

Critical Paths under _Interrupt_Manager_High in BANK6

    None.

Critical Paths under _main in BANK7

    None.

Critical Paths under _Interrupt_Manager_High in BANK7

    None.

Critical Paths under _main in BANK8

    None.

Critical Paths under _Interrupt_Manager_High in BANK8

    None.

Critical Paths under _main in BANK9

    None.

Critical Paths under _Interrupt_Manager_High in BANK9

    None.

Critical Paths under _main in BANK10

    None.

Critical Paths under _Interrupt_Manager_High in BANK10

    None.

Critical Paths under _main in BANK11

    None.

Critical Paths under _Interrupt_Manager_High in BANK11

    None.

Critical Paths under _main in BANK12

    None.

Critical Paths under _Interrupt_Manager_High in BANK12

    None.

Critical Paths under _main in BANK13

    None.

Critical Paths under _Interrupt_Manager_High in BANK13

    None.

Critical Paths under _main in BANK14

    None.

Critical Paths under _Interrupt_Manager_High in BANK14

    None.

Critical Paths under _main in BANK15

    None.

Critical Paths under _Interrupt_Manager_High in BANK15

    None.

Call Graph Tables:

 ---------------------------------------------------------------------------------
 (Depth) Function   	        Calls       Base Space   Used Autos Params    Refs
 ---------------------------------------------------------------------------------
 (0) _main                                                 0     0      0    9513
             _Application_initialize
                 _Interrupt_RBx_Init
                      _led_intialize
 ---------------------------------------------------------------------------------
 (1) _led_intialize                                        4     3      1    8602
                                              8 BANK0      4     3      1
                _gpio_pin_initialize
 ---------------------------------------------------------------------------------
 (2) _gpio_pin_initialize                                  3     2      1    8086
                                              5 BANK0      3     2      1
       _gpio_pin_direction_intialize
               _gpio_pin_write_logic
 ---------------------------------------------------------------------------------
 (3) _gpio_pin_write_logic                                 8     6      2    5837
                                             16 COMRAM     3     1      2
                                              0 BANK0      5     5      0
 ---------------------------------------------------------------------------------
 (1) _Interrupt_RBx_Init                                   4     3      1     911
                                             18 COMRAM     1     0      1
                                              5 BANK0      3     3      0
       _gpio_pin_direction_intialize
 ---------------------------------------------------------------------------------
 (3) _gpio_pin_direction_intialize                         7     6      1     437
                                             16 COMRAM     2     1      1
                                              0 BANK0      5     5      0
 ---------------------------------------------------------------------------------
 (1) _Application_initialize                               0     0      0       0
               _ecu_layer_initailize
 ---------------------------------------------------------------------------------
 (2) _ecu_layer_initailize                                 1     1      0       0
 ---------------------------------------------------------------------------------
 Estimated maximum stack depth 3
 ---------------------------------------------------------------------------------
 (Depth) Function   	        Calls       Base Space   Used Autos Params    Refs
 ---------------------------------------------------------------------------------
 (4) _Interrupt_Manager_High                               6     6      0    3904
                                             10 COMRAM     6     6      0
                           _INT0_ISR
                           _INT1_ISR
                           _INT2_ISR
                            _RB4_ISR
                            _RB5_ISR
                            _RB6_ISR
                            _RB7_ISR
 ---------------------------------------------------------------------------------
 (5) _RB7_ISR                                              1     1      0     976
                                              9 COMRAM     1     1      0
                                NULL *
                               _High *
                                _Low *
 ---------------------------------------------------------------------------------
 (5) _RB6_ISR                                              1     1      0     976
                                              9 COMRAM     1     1      0
                                NULL *
                               _High *
                                _Low *
 ---------------------------------------------------------------------------------
 (5) _RB5_ISR                                              1     1      0     976
                                              9 COMRAM     1     1      0
                                NULL *
                               _High *
                                _Low *
 ---------------------------------------------------------------------------------
 (5) _RB4_ISR                                              1     1      0     976
                                              9 COMRAM     1     1      0
                                NULL *
                               _High *
                                _Low *
 ---------------------------------------------------------------------------------
 (6) _Low                                                  0     0      0     466
                  _led_toggle_status
 ---------------------------------------------------------------------------------
 (6) _High                                                 0     0      0     466
                  _led_toggle_status
 ---------------------------------------------------------------------------------
 (7) _led_toggle_status                                    4     3      1     466
                                              5 COMRAM     4     3      1
              _gpio_pin_toggle_logic
 ---------------------------------------------------------------------------------
 (8) _gpio_pin_toggle_logic                                6     5      1     172
                                              0 COMRAM     5     4      1
 ---------------------------------------------------------------------------------
 (6) NULL(Fake)                                            0     0      0       0
 ---------------------------------------------------------------------------------
 (5) _INT2_ISR                                             0     0      0       0
 ---------------------------------------------------------------------------------
 (5) _INT1_ISR                                             0     0      0       0
 ---------------------------------------------------------------------------------
 (5) _INT0_ISR                                             0     0      0       0
 ---------------------------------------------------------------------------------
 Estimated maximum stack depth 8
 ---------------------------------------------------------------------------------

 Call Graph Graphs:

 _main (ROOT)
   _Application_initialize
     _ecu_layer_initailize
   _Interrupt_RBx_Init
     _gpio_pin_direction_intialize
   _led_intialize
     _gpio_pin_initialize
       _gpio_pin_direction_intialize
       _gpio_pin_write_logic

 _Interrupt_Manager_High (ROOT)
   _INT0_ISR
   _INT1_ISR
   _INT2_ISR
   _RB4_ISR
     NULL(Fake) *
     _High *
       _led_toggle_status
         _gpio_pin_toggle_logic
     _Low *
       _led_toggle_status
   _RB5_ISR
     NULL(Fake) *
     _High *
     _Low *
   _RB6_ISR
     NULL(Fake) *
     _High *
     _Low *
   _RB7_ISR
     NULL(Fake) *
     _High *
     _Low *

 Address spaces:
Name               Size   Autos  Total    Cost      Usage
BIGRAM             F7F      0       0      41        0.0%
EEDATA             400      0       0       0        0.0%
BITBANK14          100      0       0      33        0.0%
BANK14             100      0       0      34        0.0%
BITBANK13          100      0       0      31        0.0%
BANK13             100      0       0      32        0.0%
BITBANK12          100      0       0      29        0.0%
BANK12             100      0       0      30        0.0%
BITBANK11          100      0       0      27        0.0%
BANK11             100      0       0      28        0.0%
BITBANK10          100      0       0      24        0.0%
BANK10             100      0       0      25        0.0%
BITBANK9           100      0       0      22        0.0%
BANK9              100      0       0      23        0.0%
BITBANK8           100      0       0      20        0.0%
BANK8              100      0       0      21        0.0%
BITBANK7           100      0       0      18        0.0%
BANK7              100      0       0      19        0.0%
BITBANK6           100      0       0      16        0.0%
BANK6              100      0       0      17        0.0%
BITBANK5           100      0       0      14        0.0%
BANK5              100      0       0      15        0.0%
BITBANK4           100      0       0      12        0.0%
BANK4              100      0       0      13        0.0%
BITBANK3           100      0       0      10        0.0%
BANK3              100      0       0      11        0.0%
BITBANK2           100      0       0       8        0.0%
BANK2              100      0       0       9        0.0%
BITBANK1           100      0       0       6        0.0%
BANK1              100      0       0       7        0.0%
BITBANK15           80      0       0      35        0.0%
BANK15              80      0       0      36        0.0%
BITBANK0            80      0       0       4        0.0%
BANK0               80      C       C       5        9.4%
BITCOMRAM           7E      0       0       0        0.0%
COMRAM              7E     13      6E       1       87.3%
BITBIGSFRhll        59      0       0      38        0.0%
BITBIGSFRhh          D      0       0      37        0.0%
BITBIGSFRlh          4      0       0      39        0.0%
BITBIGSFRll          4      0       0      40        0.0%
BIGSFR               0      0       0     200        0.0%
BITSFR               0      0       0     200        0.0%
SFR                  0      0       0     200        0.0%
STACK                0      0       0       2        0.0%
NULL                 0      0       0       0        0.0%
ABS                  0      0      7A      26        0.0%
DATA                 0      0      7A       3        0.0%
CODE                 0      0       0       0        0.0%


Microchip Technology PIC18 Macro Assembler V2.45 build 20230818022343 
Symbol Table                                                                                   Mon Feb 05 16:17:54 2024

                          _led_intialize 17E0                  ?_Interrupt_Manager_High 005C  
                   ??_Interrupt_RBx_Init 0085                                       _rb 0036  
                                    l251 17FE                                      l326 1A0A  
                                    l414 1930                                      l255 1858  
                                    l504 134E                                      l513 144E  
                                    l508 144A                                      l374 1332  
                                    l393 1564                                      l734 19FC  
                                    l728 19A2                                      l729 19A2  
                                    _Low 19E0                                      _lcd 0027  
                                    _key 001F                                      _ret 0031  
                                    tosl 0FFD                                      wreg 0FE8  
                        __end_of_RB4_ISR 17E0                          __end_of_RB5_ISR 1762  
                        __end_of_RB6_ISR 16E4                          __end_of_RB7_ISR 1666  
                                   ?_Low 005C                                     l4411 199E  
                                   l1589 1A0A                                     l3711 192C  
                                   l3703 18CE                                     l1849 19F8  
                                   l3705 18E4                                     l4409 1970  
                                   l3707 1904                                     l3661 1486  
                                   l3709 190C                                     l3901 184C  
                                   l3911 1356                                     l3663 148E  
                                   l3671 1538                                     l3903 1854  
                                   l3681 1208                                     l3921 13B0  
                                   l3913 1368                                     l3665 14E0  
                                   l3673 1562                                     l3657 1450  
                                   l3683 121C                                     l3923 13BE  
                                   l3915 1376                                     l3907 1334  
                                   l4483 154C                                     l3659 1464  
                                   l3693 12F0                                     l3685 123E  
                                   l4485 1424                                     l3925 13D4  
                                   l3917 138C                                     l3933 1400  
                                   l3909 1344                                     l4487 131A  
                                   l3687 1246                                     l3695 1330  
                                   l3927 13E2                                     l3919 139A  
                                   l3935 144C                                     l3689 129E  
                                   l3929 13F8                                     l3891 17E0  
                                   l3893 17F6                                     l3895 1802  
                                   l3897 1838                                     l3899 183A  
                                   STR_1 1011                                     u3000 1308  
                                   u3010 18E4                                     u3011 18E0  
                                   u3020 1904                                     u3021 1900  
                                   _LATA 0F89                                     _LATB 0F8A  
                                   _LATC 0F8B                                     _LATD 0F8C  
                                   _LATE 0F8D                                     u3210 1344  
                                   u3211 1340                                     u3205 1848  
                                   u3207 184C                                     u3190 17F6  
                                   u3191 17F2                                     u2910 1464  
                                   u2911 1460                                     u2920 1486  
                                   u2921 1482                                     u2950 121C  
                                   u2934 14AC                                     u2951 1218  
                                   u2935 14A8                                     u2960 123E  
                                   u2944 14FE                                     u2961 123A  
                                   u2945 14FA                                     u2990 1306  
                                   u2974 1264                                     u2991 1300  
                                   u2975 1260                                     u2984 12BC  
                                   u2985 12B8                                     _High 19EC  
                                   _led0 003E                                     _led1 003D  
                                   _led2 003C                                     _led3 0030  
                                   _main 1970                                     fsr2h 0FDA  
                                   indf2 0FDF                                     fsr1l 0FE1  
                                   fsr2l 0FD9                                     btemp 006F  
                                   prodh 0FF4                                     prodl 0FF3  
                                   start 000E                           ?_led_intialize 0088  
         __end_of_Interrupt_Manager_High 1208                             ___param_bank 0000  
                 ?_gpio_pin_toggle_logic 005C                                    ??_Low 0065  
                   _gpio_pin_write_logic 1450                         __end_of_INT0_ISR 1A0A  
                       __end_of_INT1_ISR 1A06                         __end_of_INT2_ISR 1A02  
                                  ?_High 005C                            Relay_on@F3061 0056  
                                  ?_main 005C                                    _RB4_f 0035  
                                  i2l407 15E6                                    i2l272 1876  
                                  _RB5_f 0034                                    i2l610 1A08  
                                  i2l276 18CC                                    _RB6_f 0033  
                                  i2l614 1A04                                    _RB7_f 0032  
                                  i2l721 19EA                                    i2l618 1A00  
                                  i2l626 17DE                                    i2l634 1760  
                                  i2l642 16E2                                    i2l650 1664  
                                  i2l718 19F6                                    i2l695 11EC  
                                  _PORTA 0F80                                    _PORTB 0F81  
                                  _PORTC 0F82                                    _PORTD 0F83  
                                  _PORTE 0F84                                    _TRISA 0F92  
                                  _TRISB 0F93                                    _TRISC 0F94  
                                  _TRISD 0F95                                    _TRISE 0F96  
                                  pclath 0FFA                                    pclatu 0FFB  
                                  tablat 0FF5                                    ttemp5 0070  
                                  ttemp6 0073                                    ttemp7 0077  
                                  status 0FD8                                    wtemp8 0070  
                           __end_of_High 19F8                          __initialization 19AA  
                           __end_of_main 19AA                    ?_gpio_pin_write_logic 006C  
                                 ??_High 0065                            _lat_registers 000B  
                                 ??_main 006F                            __activetblptr 0003  
                       led_turn_on@F3063 005A                                ??_RB4_ISR 0065  
                              ??_RB5_ISR 0065                                ??_RB6_ISR 0065  
                              ??_RB7_ISR 0065                                   i2l3041 1788  
                                 i2l3043 17A4                                   i2l3035 1764  
                                 i2l3051 16E8                                   i2l3045 17B4  
                                 i2l3037 1766                                   i2l3061 1748  
                                 i2l3053 16F8                                   i2l3047 17C6  
                                 i2l3039 1776                                   i2l3055 170A  
                                 i2l3071 16A8                                   i2l3063 1668  
                                 i2l3057 1726                                   i2l3049 16E6  
                                 i2l3073 16B8                                   i2l3065 166A  
                                 i2l3081 15FC                                   i2l3059 1736  
                                 i2l3075 16CA                                   i2l3067 167A  
                                 i2l3083 160E                                   i2l3069 168C  
                                 i2l3085 162A                                   i2l3077 15EA  
                                 i2l3087 163A                                   i2l3079 15EC  
                                 i2l2721 1576                                   i2l3089 164C  
                                 i2l3601 1124                                   i2l2723 1596  
                                 i2l3611 115A                                   i2l3603 1132  
                                 i2l1781 1A06                                   i2l2725 159A  
                                 i2l3621 1192                                   i2l3613 116A  
                                 i2l3605 1142                                   i2l2719 1566  
                                 i2l3631 11BE                                   i2l3623 1196  
                                 i2l3615 116E                                   i2l3607 1146  
                                 i2l1785 1A02                                   i2l2761 18B2  
                                 i2l2753 185A                                   i2l3633 11C4  
                                 i2l3625 119C                                   i2l3617 1174  
                                 i2l3609 114C                                   i2l3561 1050  
                                 i2l2763 18C2                                   i2l2755 186E  
                                 i2l3635 11D2                                   i2l3627 11AA  
                                 i2l3619 1182                                   i2l3571 108C  
                                 i2l3563 105E                                   i2l3555 1030  
                                 i2l1789 19FE                                   i2l2757 187A  
                                 i2l2765 18CA                                   i2l3637 11E2  
                                 i2l3629 11BA                                   i2l3581 10CA  
                                 i2l3573 1090                                   i2l3565 106C  
                                 i2l3557 103E                                   i2l2759 18B0  
                                 i2l3639 11E6                                   i2l3591 10F6  
                                 i2l3583 10CE                                   i2l3575 109E  
                                 i2l3567 1070                                   i2l3559 104C  
                                 i2l3593 10FC                                   i2l3585 10D4  
                                 i2l3577 10AC                                   i2l3569 107E  
                                 i2l3595 110A                                   i2l3587 10E2  
                                 i2l3579 10BA                                   i2l2885 19EC  
                                 i2l3597 111A                                   i2l3589 10F2  
                                 i2l2887 19E0                                   i2l3599 111E  
       gpio_pin_toggle_logic@_pin_config 005C                          ??_led_intialize 0089  
                         Relay_off@F3066 0055                  ?_Application_initialize 005C  
                       led_intialize@Led 0088                         led_intialize@ret 008A  
                                 _button 002D                                   clear_0 19D0  
                                 isa$std 0001                                   fp__Low 0000  
gpio_pin_direction_intialize@_pin_config 006C                             __pdataCOMRAM 0001  
                           __mediumconst 0000                                   tblptrh 0FF7  
                                 tblptrl 0FF6                                   tblptru 0FF8  
                             __accesstop 0080                  __end_of__initialization 19D6  
                              ?_INT0_ISR 005C                                ?_INT1_ISR 005C  
                              ?_INT2_ISR 005C                            ___rparam_used 0001  
                 ??_gpio_pin_write_logic 0080                           __pcstackCOMRAM 005C  
         __end_of_Application_initialize 19FE                            RB4_ISR@source 0065  
             _RB6_Interrupt_Handler_High 0045                            RB5_ISR@source 0065  
              _RB5_Interrupt_Handler_Low 0047                               ??_INT0_ISR 005C  
                             ??_INT1_ISR 005C                               ??_INT2_ISR 005C  
                 _INT2_Interrupt_Handler 004F                  ??_gpio_pin_toggle_logic 005D  
                          RB6_ISR@source 0065                        led_turn_off@F3068 0059  
                                _RB4_ISR 1762                                  _RB5_ISR 16E4  
                                _RB6_ISR 1666                                  _RB7_ISR 15E8  
                          RB7_ISR@source 0065                               _btn_values 1001  
                         _tris_registers 0015                                  __Hparam 0000  
                                __Lparam 0000                     led_intialize@pin_obj 008B  
                    _gpio_pin_initialize 18CE                             __psmallconst 1000  
                                __pcinit 19AA                                  __ramtop 1000  
                                __ptext0 1970                                  __ptext1 17E0  
                                __ptext2 18CE                                  __ptext3 1450  
                                __ptext4 1334                                  __ptext5 1208  
                                __ptext6 19F8                                  __ptext7 1A0A  
                                __ptext9 15E8                                  fp__High 0000  
                   ?_gpio_pin_initialize 0085                           __pintcode_body 1016  
                   end_of_initialization 19D6                                  int_func 1016  
                                postdec1 0FE5                                  postdec2 0FDD  
                                postinc0 0FEE                                  postinc2 0FDE  
                              _PORTBbits 0F81                     led_toggle_status@Led 0061  
                   led_toggle_status@ret 0063     __end_of_gpio_pin_direction_intialize 1334  
           _gpio_pin_direction_intialize 1208                    ??_gpio_pin_initialize 0086  
               ??_Interrupt_Manager_High 0066                    __end_of_led_intialize 185A  
                          __pidataCOMRAM 1932                    Interrupt_RBx_Init@obj 006E  
                  Interrupt_RBx_Init@ret 0087                      start_initialization 19AA  
                            __end_of_Low 19EC            ?_gpio_pin_direction_intialize 006C  
          __end_of_gpio_pin_toggle_logic 15E8             __end_of_ecu_layer_initailize 1A0C  
             _RB5_Interrupt_Handler_High 0049                        _led_toggle_status 185A  
                               ?_RB4_ISR 005C                                 ?_RB5_ISR 005C  
                               ?_RB6_ISR 005C                                 ?_RB7_ISR 005C  
                     ?_led_toggle_status 0061                              __pbssCOMRAM 003F  
                          __pcstackBANK0 0080                _RB6_Interrupt_Handler_Low 0043  
                    ??_led_toggle_status 0062                   _INT0_Interrupt_Handler 0053  
        gpio_pin_direction_intialize@ret 006D                    Relay_initialize@F3056 0057  
                              __pintcode 0008               __end_of_Interrupt_RBx_Init 1450  
        gpio_pin_write_logic@_pin_config 006C                __end_of_led_toggle_status 18CE  
                            __smallconst 1000           ??_gpio_pin_direction_intialize 0080  
                               _INT0_ISR 1A06                                 _INT1_ISR 1A02  
                               _INT2_ISR 19FE                 ??_Application_initialize 006C  
                               i2u210_40 170A                                 i2u210_41 1706  
                               i2u203_40 1776                                 i2u203_41 1772  
                               i2u204_40 1788                                 i2u212_40 1736  
                               i2u211_48 1710                                 i2u204_41 1784  
                               i2u212_41 1732                                 i2u211_49 1722  
                               i2u213_40 1748                                 i2u220_48 16D0  
                               i2u221_40 15FC                                 i2u213_41 1744  
                               i2u220_49 16E2                                 i2u221_41 15F8  
                               i2u206_40 17B4                                 i2u205_48 178E  
                               i2u222_40 160E                                 i2u206_41 17B0  
                               i2u205_49 17A0                                 i2u222_41 160A  
                               i2u207_40 17C6                                 i2u214_48 174E  
                               i2u215_40 167A                                 i2u207_41 17C2  
                               i2u214_49 1760                                 i2u215_41 1676  
                               i2u216_40 168C                                 i2u224_40 163A  
                               i2u223_48 1614                                 i2u216_41 1688  
                               i2u224_41 1636                                 i2u223_49 1626  
                               i2u208_48 17CC                                 i2u209_40 16F8  
                               i2u225_40 164C                                 i2u208_49 17DE  
                               i2u209_41 16F4                                 i2u225_41 1648  
                               i2u218_40 16B8                                 i2u217_48 1692  
                               i2u218_41 16B4                                 i2u217_49 16A4  
                               i2u219_40 16CA                                 i2u226_48 1652  
                               i2u219_41 16C6                                 i2u226_49 1664  
                               i2u174_40 186E                                 i2u270_40 106C  
                               i2u174_41 186A                                 i2u270_41 1068  
                               i2u167_40 1576                                 i2u271_40 107E  
                               i2u167_41 1572                                 i2u271_41 107A  
                               i2u175_45 18C0                                 i2u175_47 18C2  
                               i2u168_40 1596                                 i2u280_40 111A  
                               i2u272_40 108C                                 i2u168_41 1592  
                               i2u280_41 1116                                 i2u272_41 1088  
                               i2u281_40 1132                                 i2u273_40 109E  
                               i2u281_41 112E                                 i2u273_41 109A  
                               i2u169_44 15B8                                 i2u169_45 15B4  
                               i2u290_40 11E2                                 i2u282_40 1142  
                               i2u274_40 10AC                                 i2u290_41 11DE  
                               i2u282_41 113E                                 i2u274_41 10A8  
                               i2u283_40 115A                                 i2u275_40 10BA  
                               i2u267_40 103E                                 i2u283_41 1156  
                               i2u275_41 10B6                                 i2u267_41 103A  
                               i2u284_40 116A                                 i2u276_40 10CA  
                               i2u268_40 104C                                 i2u284_41 1166  
                               i2u276_41 10C6                                 i2u268_41 1048  
                               i2u285_40 1182                                 i2u277_40 10E2  
                               i2u269_40 105E                                 i2u285_41 117E  
                               i2u277_41 10DE                                 i2u269_41 105A  
                               i2u286_40 1192                                 i2u278_40 10F2  
                               i2u286_41 118E                                 i2u278_41 10EE  
                               i2u287_40 11AA                                 i2u279_40 110A  
                               i2u287_41 11A6                                 i2u279_41 1106  
                               i2u288_40 11BA                                 i2u288_41 11B6  
                               i2u289_40 11D2                                 i2u289_41 11CE  
                 _Interrupt_Manager_High 0008                   gpio_pin_initialize@ret 0087  
                gpio_pin_write_logic@ret 006E                              _INTCON2bits 0FF1  
                            _INTCON3bits 0FF0                                copy_data0 19BE  
                   _ecu_layer_initailize 1A0A                                 __Hrparam 0000  
                               __Lrparam 0000                 led_toggle_status@pin_obj 0064  
            __end_of_gpio_pin_initialize 1932                       __end_of_btn_values 1011  
         gpio_pin_initialize@_pin_config 0085                       led_intialize@F3058 005B  
                               __ptext10 1666                                 __ptext11 16E4  
                               __ptext20 0000                                 __ptext12 1762  
                               __ptext13 19E0                                 __ptext14 19EC  
                               __ptext15 185A                                 __ptext16 1566  
                               __ptext17 19FE                                 __ptext18 1A02  
                               __ptext19 1A06                    ?_ecu_layer_initailize 005C  
                               isa$xinst 0000                                 int$flags 006F  
                             _INTCONbits 0FF2             __end_of_gpio_pin_write_logic 1566  
                               intlevel2 0000                   led_toggle_status@F3073 0058  
                  _gpio_pin_toggle_logic 1566               _RB4_Interrupt_Handler_High 004D  
                 _Application_initialize 19F8               gpio_pin_write_logic@logic_ 006D  
             _RB7_Interrupt_Handler_High 0041                           _port_registers 0001  
                     _Interrupt_RBx_Init 1334                _RB4_Interrupt_Handler_Low 004B  
                 ??_ecu_layer_initailize 006C                _RB7_Interrupt_Handler_Low 003F  
                    ?_Interrupt_RBx_Init 006E                   _INT1_Interrupt_Handler 0051  
